Archive member included because of file (symbol)

lib_generic/libgeneric.a(display_options.o)
                              lib_arm/board.o (print_size)
lib_generic/libgeneric.a(net_utils.o)
                              lib_arm/board.o (string_to_ip)
lib_generic/libgeneric.a(string.o)
                              lib_arm/board.o (memset)
lib_generic/libgeneric.a(vsprintf.o)
                              lib_arm/board.o (simple_strtoul)
lib_generic/libgeneric.a(ctype.o)
                              lib_generic/libgeneric.a(display_options.o) (_ctype)
lib_generic/libgeneric.a(div64.o)
                              lib_generic/libgeneric.a(vsprintf.o) (__div64_32)
lib_generic/libgeneric.a(time.o)
                              lib_generic/libgeneric.a(vsprintf.o) (udelay)
cpu/arm1176/s3c64xx/libs3c64xx.a(speed.o)
                              lib_arm/board.o (print_cpuinfo)
cpu/arm1176/s3c64xx/libs3c64xx.a(timer.o)
                              lib_generic/libgeneric.a(time.o) (__udelay)
lib_arm/libarm.a(interrupts.o)
                              lib_arm/board.o (enable_interrupts)
lib_arm/libarm.a(reset.o)     lib_generic/libgeneric.a(vsprintf.o) (do_reset)
net/libnet.a(eth.o)           lib_arm/board.o (eth_initialize)
net/libnet.a(net.o)           lib_arm/board.o (copy_filename)
net/libnet.a(nfs.o)           net/libnet.a(net.o) (NfsStart)
net/libnet.a(rarp.o)          net/libnet.a(net.o) (RarpRequest)
net/libnet.a(tftp.o)          net/libnet.a(net.o) (TftpStart)
net/libnet.a(bootp.o)         net/libnet.a(net.o) (BootpRequest)
drivers/mtd/libmtd.a(cfi_flash.o)
                              lib_arm/board.o (flash_init)
drivers/mtd/libmtd.a(jedec_flash.o)
                              drivers/mtd/libmtd.a(cfi_flash.o) (jedec_flash_match)
drivers/mtd/nand/libnand.a(nand.o)
                              lib_arm/board.o (nand_init)
drivers/mtd/nand/libnand.a(nand_base.o)
                              drivers/mtd/nand/libnand.a(nand.o) (nand_scan)
drivers/mtd/nand/libnand.a(nand_bbt.o)
                              drivers/mtd/nand/libnand.a(nand_base.o) (nand_isbad_bbt)
drivers/mtd/nand/libnand.a(nand_ecc.o)
                              drivers/mtd/nand/libnand.a(nand_base.o) (nand_calculate_ecc)
drivers/mtd/nand/libnand.a(nand_ids.o)
                              drivers/mtd/nand/libnand.a(nand_base.o) (nand_flash_ids)
drivers/mtd/nand/libnand.a(s3c64xx.o)
                              drivers/mtd/nand/libnand.a(nand.o) (board_nand_init)
drivers/net/libnet.a(dm9000x.o)
                              net/libnet.a(eth.o) (dm9000_initialize)
drivers/serial/libserial.a(s3c64xx.o)
                              lib_arm/board.o (serial_init)
common/libcommon.a(cmd_bdinfo.o)
                              (__u_boot_cmd_bdinfo)
common/libcommon.a(cmd_boot.o)
                              (__u_boot_cmd_go)
common/libcommon.a(cmd_bootm.o)
                              lib_arm/board.o (load_addr)
common/libcommon.a(cmd_bootzImage.o)
                              (__u_boot_cmd_bootzImage)
common/libcommon.a(cmd_cache.o)
                              (__u_boot_cmd_icache)
common/libcommon.a(cmd_console.o)
                              (__u_boot_cmd_coninfo)
common/libcommon.a(cmd_echo.o)
                              (__u_boot_cmd_echo)
common/libcommon.a(cmd_elf.o)
                              common/libcommon.a(cmd_bootm.o) (do_bootvx)
common/libcommon.a(cmd_exit.o)
                              (__u_boot_cmd_exit)
common/libcommon.a(cmd_ext2.o)
                              (__u_boot_cmd_ext2ls)
common/libcommon.a(cmd_fat.o)
                              (__u_boot_cmd_fatload)
common/libcommon.a(cmd_flash.o)
                              (__u_boot_cmd_flinfo)
common/libcommon.a(cmd_help.o)
                              (__u_boot_cmd_help)
common/libcommon.a(cmd_itest.o)
                              (__u_boot_cmd_itest)
common/libcommon.a(cmd_load.o)
                              (__u_boot_cmd_loads)
common/libcommon.a(cmd_mem.o)
                              (__u_boot_cmd_md)
common/libcommon.a(cmd_misc.o)
                              (__u_boot_cmd_sleep)
common/libcommon.a(cmd_nand.o)
                              (__u_boot_cmd_nand)
common/libcommon.a(cmd_net.o)
                              (__u_boot_cmd_bootp)
common/libcommon.a(cmd_nvedit.o)
                              net/libnet.a(eth.o) (get_env_id)
common/libcommon.a(cmd_reginfo.o)
                              (__u_boot_cmd_reginfo)
common/libcommon.a(cmd_source.o)
                              (__u_boot_cmd_source)
common/libcommon.a(cmd_test.o)
                              (__u_boot_cmd_test)
common/libcommon.a(cmd_usb.o)
                              (__u_boot_cmd_usb)
common/libcommon.a(cmd_usbd.o)
                              (__u_boot_cmd_dnw)
common/libcommon.a(cmd_version.o)
                              (__u_boot_cmd_version)
common/libcommon.a(cmd_ximg.o)
                              (__u_boot_cmd_imxtract)
common/libcommon.a(command.o)
                              common/libcommon.a(cmd_itest.o) (cmd_get_data_size)
common/libcommon.a(console.o)
                              lib_arm/board.o (printf)
common/libcommon.a(dlmalloc.o)
                              drivers/mtd/nand/libnand.a(nand_base.o) (free)
common/libcommon.a(env_common.o)
                              common/libcommon.a(cmd_nvedit.o) (env_get_addr)
common/libcommon.a(env_nand.o)
                              common/libcommon.a(env_common.o) (env_get_char_spec)
common/libcommon.a(exports.o)
                              lib_arm/board.o (jumptable_init)
common/libcommon.a(flash.o)   common/libcommon.a(cmd_load.o) (addr2info)
common/libcommon.a(hush.o)    common/libcommon.a(cmd_bootm.o) (parse_string_outer)
common/libcommon.a(image.o)   common/libcommon.a(cmd_ximg.o) (image_multi_count)
common/libcommon.a(main.o)    common/libcommon.a(cmd_nvedit.o) (do_run)
common/libcommon.a(s_record.o)
                              common/libcommon.a(cmd_load.o) (srec_decode)
common/libcommon.a(stdio.o)   common/libcommon.a(cmd_console.o) (stdio_get_list)
common/libcommon.a(usb.o)     common/libcommon.a(cmd_usb.o) (usb_get_dev_index)
common/libcommon.a(usb_storage.o)
                              common/libcommon.a(cmd_usb.o) (usb_stor_get_dev)
common/libcommon.a(xyzModem.o)
                              common/libcommon.a(cmd_load.o) (xyzModem_error)
board/samsung/smdk6410/libsmdk6410.a(smdk6410.o)
                              lib_arm/board.o (board_init)
lib_generic/libgeneric.a(crc16.o)
                              common/libcommon.a(xyzModem.o) (cyg_crc16)
lib_generic/libgeneric.a(crc32.o)
                              common/libcommon.a(cmd_mem.o) (crc32)
lib_generic/libgeneric.a(gunzip.o)
                              common/libcommon.a(cmd_bootm.o) (gunzip)
lib_generic/libgeneric.a(zlib.o)
                              lib_generic/libgeneric.a(gunzip.o) (inflateInit2_)
cpu/arm1176/s3c64xx/libs3c64xx.a(reset.o)
                              lib_arm/libarm.a(interrupts.o) (reset_cpu)
lib_arm/libarm.a(bootm.o)     common/libcommon.a(cmd_bootm.o) (do_bootm_linux)
lib_arm/libarm.a(cache.o)     common/libcommon.a(cmd_elf.o) (flush_cache)
lib_arm/libarm.a(cache-cp15.o)
                              common/libcommon.a(cmd_cache.o) (icache_enable)
fs/fat/libfat.a(fat.o)        common/libcommon.a(cmd_fat.o) (file_fat_detectfs)
fs/ext2/libext2fs.a(ext2fs.o)
                              common/libcommon.a(cmd_ext2.o) (ext2fs_mount)
fs/ext2/libext2fs.a(dev.o)    fs/ext2/libext2fs.a(ext2fs.o) (ext2fs_devread)
disk/libdisk.a(part.o)        common/libcommon.a(cmd_usb.o) (print_part)
disk/libdisk.a(part_dos.o)    disk/libdisk.a(part.o) (test_part_dos)
drivers/mtd/nand/libnand.a(nand_util.o)
                              common/libcommon.a(cmd_nand.o) (nand_read_skip_bad)
drivers/usb/host/libusb_host.a(ohci-hcd.o)
                              common/libcommon.a(usb.o) (usb_lowlevel_stop)
drivers/usb/host/libusb_host.a(s3c64xx-hcd.o)
                              drivers/usb/host/libusb_host.a(ohci-hcd.o) (usb_cpu_init)
cpu/arm1176/libarm1176.a(cpu.o)
                              lib_arm/libarm.a(bootm.o) (cleanup_before_linux)
/usr/local/arm/4.3.2/bin/../lib/gcc/arm-none-linux-gnueabi/4.3.2/armv4t/libgcc.a(_udivsi3.o)
                              lib_generic/libgeneric.a(display_options.o) (__aeabi_uidiv)
/usr/local/arm/4.3.2/bin/../lib/gcc/arm-none-linux-gnueabi/4.3.2/armv4t/libgcc.a(_divsi3.o)
                              cpu/arm1176/s3c64xx/libs3c64xx.a(timer.o) (__aeabi_idiv)
/usr/local/arm/4.3.2/bin/../lib/gcc/arm-none-linux-gnueabi/4.3.2/armv4t/libgcc.a(_lshrdi3.o)
                              lib_generic/libgeneric.a(vsprintf.o) (__aeabi_llsr)
/usr/local/arm/4.3.2/bin/../lib/gcc/arm-none-linux-gnueabi/4.3.2/armv4t/libgcc.a(_ashrdi3.o)
                              drivers/mtd/nand/libnand.a(nand_base.o) (__aeabi_lasr)
/usr/local/arm/4.3.2/bin/../lib/gcc/arm-none-linux-gnueabi/4.3.2/armv4t/libgcc.a(_ashldi3.o)
                              drivers/mtd/nand/libnand.a(nand_base.o) (__aeabi_llsl)
/usr/local/arm/4.3.2/bin/../lib/gcc/arm-none-linux-gnueabi/4.3.2/armv4t/libgcc.a(_dvmd_lnx.o)
                              /usr/local/arm/4.3.2/bin/../lib/gcc/arm-none-linux-gnueabi/4.3.2/armv4t/libgcc.a(_udivsi3.o) (__aeabi_idiv0)

Memory Configuration

Name             Origin             Length             Attributes
*default*        0x00000000         0xffffffff

Linker script and memory map

                0x00000000                . = 0x0
                0x00000000                . = ALIGN (0x4)

.text           0x57e00000    0x296dc
 cpu/arm1176/start.o(.text)
 .text          0x57e00000      0x400 cpu/arm1176/start.o
                0x57e00040                _end_vect
                0x57e0004c                _bss_start
                0x57e00050                _bss_end
                0x57e00048                _armboot_start
                0x57e000ec                copy_from_nand
                0x57e00000                _start
 cpu/arm1176/s3c64xx/cpu_init.o(.text)
 .text          0x57e00400      0x124 cpu/arm1176/s3c64xx/cpu_init.o
                0x57e00400                mem_ctrl_asm_init
 board/samsung/smdk6410/lowlevel_init.o(.text)
 .text          0x57e00524      0x1d0 board/samsung/smdk6410/lowlevel_init.o
                0x57e00528                lowlevel_init
 cpu/arm1176/nand_cp.o(.text)
 .text          0x57e006f4      0x1c8 cpu/arm1176/nand_cp.o
                0x57e007b4                copy_uboot_to_ram
 lib_arm/board.o(.text)
 .text          0x57e008bc      0x260 lib_arm/board.o
                0x57e008d4                __yellow_LED_off
                0x57e008c8                green_LED_on
                0x57e008e0                hang
                0x57e008c8                __green_LED_on
                0x57e008d0                __yellow_LED_on
                0x57e008d0                yellow_LED_on
                0x57e008cc                __green_LED_off
                0x57e008c4                __red_LED_off
                0x57e009a0                start_armboot
                0x57e008dc                blue_LED_off
                0x57e008bc                coloured_LED_init
                0x57e008dc                __blue_LED_off
                0x57e008d8                blue_LED_on
                0x57e008d4                yellow_LED_off
                0x57e008c4                red_LED_off
                0x57e008cc                green_LED_off
                0x57e008bc                __coloured_LED_init
                0x57e008c0                red_LED_on
                0x57e008d8                __blue_LED_on
                0x57e008c0                __red_LED_on
 *(.text)
 .text          0x57e00b1c      0x24c lib_generic/libgeneric.a(display_options.o)
                0x57e00c08                print_buffer
                0x57e00be8                display_options
                0x57e00b1c                print_size
 .text          0x57e00d68       0x78 lib_generic/libgeneric.a(net_utils.o)
                0x57e00d68                string_to_ip
 .text          0x57e00de0      0x64c lib_generic/libgeneric.a(string.o)
                0x57e00de0                strcpy
                0x57e01334                memscan
                0x57e01298                memmove
                0x57e0121c                memcpy
                0x57e01128                strswab
                0x57e00fc8                strnlen
                0x57e00f90                strrchr
                0x57e00e24                strcat
                0x57e013c8                memchr
                0x57e01364                strstr
                0x57e00ef4                strncmp
                0x57e00dfc                strncpy
                0x57e011f0                bcopy
                0x57e01074                strtok
                0x57e012f4                memcmp
                0x57e00e58                strncat
                0x57e013f8                strdup
                0x57e01174                memset
                0x57e00ebc                strcmp
                0x57e010f4                strsep
                0x57e00ff0                strspn
                0x57e00f70                strlen
                0x57e00f44                strchr
                0x57e01034                strpbrk
 .text          0x57e0142c      0xec4 lib_generic/libgeneric.a(vsprintf.o)
                0x57e01c50                vsprintf
                0x57e01554                ustrtoul
                0x57e0152c                simple_strtol
                0x57e017b8                panic
                0x57e022c8                sprintf
                0x57e01474                simple_strtoul
                0x57e015c8                simple_strtoull
 .text          0x57e022f0        0x0 lib_generic/libgeneric.a(ctype.o)
 .text          0x57e022f0       0xf4 lib_generic/libgeneric.a(div64.o)
                0x57e022f0                __div64_32
 .text          0x57e023e4       0x2c lib_generic/libgeneric.a(time.o)
                0x57e023e4                udelay
 .text          0x57e02410      0x204 cpu/arm1176/s3c64xx/libs3c64xx.a(speed.o)
                0x57e024ec                get_HCLK
                0x57e02498                get_PCLK
                0x57e02490                get_FCLK
                0x57e02540                get_ARMCLK
                0x57e02488                get_UCLK
                0x57e02568                print_cpuinfo
 .text          0x57e02614      0x1f4 cpu/arm1176/s3c64xx/libs3c64xx.a(timer.o)
                0x57e02724                __udelay
                0x57e026f0                set_timer
                0x57e026cc                reset_timer
                0x57e02680                get_tbclk
                0x57e026dc                get_timer
                0x57e0269c                reset_timer_masked
                0x57e02768                timer_init
                0x57e026d0                get_timer_masked
                0x57e02614                get_ticks
 .text          0x57e02808      0x264 lib_arm/libarm.a(interrupts.o)
                0x57e02994                do_fiq
                0x57e02a48                do_undefined_instruction
                0x57e02814                show_regs
                0x57e02970                do_irq
                0x57e02954                bad_mode
                0x57e02a00                do_prefetch_abort
                0x57e0280c                disable_interrupts
                0x57e029b8                do_not_used
                0x57e029dc                do_data_abort
                0x57e02a24                do_software_interrupt
                0x57e02808                enable_interrupts
 .text          0x57e02a6c       0x30 lib_arm/libarm.a(reset.o)
                0x57e02a6c                do_reset
 .text          0x57e02a9c      0x76c net/libnet.a(eth.o)
                0x57e02bf4                eth_get_dev_by_name
                0x57e02b40                eth_halt
                0x57e02a9c                cpu_eth_init
                0x57e02d9c                eth_register
                0x57e02ebc                eth_getenv_enetaddr
                0x57e02aa4                eth_get_dev
                0x57e02e60                eth_parse_enetaddr
                0x57e02cec                eth_try_another
                0x57e02f14                eth_getenv_enetaddr_by_index
                0x57e03020                eth_initialize
                0x57e02c48                eth_set_current
                0x57e02ba8                eth_rx
                0x57e02af4                eth_get_dev_index
                0x57e02f60                eth_init
                0x57e02e28                eth_setenv_enetaddr
                0x57e02bd4                eth_get_name
                0x57e02ab4                eth_get_dev_by_index
                0x57e02b74                eth_send
 .text          0x57e03208     0x1348 net/libnet.a(net.o)
                0x57e0328c                NetCksumOk
                0x57e0346c                NetSetTimeout
                0x57e032b0                copy_filename
                0x57e03364                NetEthHdrSize
                0x57e03400                ip_to_string
                0x57e040b4                ArpTimeoutCheck
                0x57e036b4                NetReceive
                0x57e03e50                NetSendUDPPacket
                0x57e0359c                NetSetEther
                0x57e04138                NetLoop
                0x57e03c28                ArpRequest
                0x57e03450                random_port
                0x57e033a8                VLAN_to_string
                0x57e03354                getenv_VLAN
                0x57e03244                NetCksum
                0x57e034a4                NetSetIP
                0x57e03308                string_to_VLAN
                0x57e03fa8                NetStartAgain
                0x57e03234                NetSetHandler
                0x57e03d14                PingSend
                0x57e036b0                NetSendPacket
 .text          0x57e04550      0xea4 net/libnet.a(nfs.o)
                0x57e04d58                NfsStart
 .text          0x57e053f4      0x1ac net/libnet.a(rarp.o)
                0x57e053f4                RarpRequest
 .text          0x57e055a0      0x740 net/libnet.a(tftp.o)
                0x57e05734                TftpStart
 .text          0x57e05ce0      0x5f0 net/libnet.a(bootp.o)
                0x57e05d88                BootpRequest
 .text          0x57e062d0     0x19c8 drivers/mtd/libmtd.a(cfi_flash.o)
                0x57e06984                flash_get_size
                0x57e07a64                flash_erase
                0x57e067e8                flash_set_verbose
                0x57e06f64                flash_init
                0x57e07864                flash_print_info
                0x57e067b8                flash_cmd_reset
                0x57e067b8                __flash_cmd_reset
                0x57e063b4                flash_write_cmd
                0x57e062f0                flash_sector_size
                0x57e076b0                write_buff
 .text          0x57e07c98      0x1b8 drivers/mtd/libmtd.a(jedec_flash.o)
                0x57e07c98                jedec_flash_match
 .text          0x57e07e50       0xa0 drivers/mtd/nand/libnand.a(nand.o)
                0x57e07e50                nand_init
 .text          0x57e07ef0     0x3b4c drivers/mtd/nand/libnand.a(nand_base.o)
                0x57e0ae14                nand_wait_ready
                0x57e09378                nand_scan_ident
                0x57e09eec                nand_scan
                0x57e0a9b8                nand_erase_nand
                0x57e09920                nand_scan_tail
                0x57e09330                nand_release
 .text          0x57e0ba3c     0x17f8 drivers/mtd/nand/libnand.a(nand_bbt.o)
                0x57e0bb40                nand_isbad_bbt
                0x57e0d170                nand_default_bbt
                0x57e0ca14                nand_update_bbt
                0x57e0ccf0                nand_scan_bbt
 .text          0x57e0d234      0x224 drivers/mtd/nand/libnand.a(nand_ecc.o)
                0x57e0d32c                nand_correct_data
                0x57e0d234                nand_calculate_ecc
 .text          0x57e0d458        0x0 drivers/mtd/nand/libnand.a(nand_ids.o)
 .text          0x57e0d458      0x2c4 drivers/mtd/nand/libnand.a(s3c64xx.o)
                0x57e0d590                board_nand_init
 .text          0x57e0d71c      0x8fc drivers/net/libnet.a(dm9000x.o)
                0x57e0de18                dm9000_write_srom_word
                0x57e0dec4                dm9000_initialize
                0x57e0de70                dm9000_read_srom_word
 .text          0x57e0e018      0x130 drivers/serial/libserial.a(s3c64xx.o)
                0x57e0e0b8                serial_setbrg
                0x57e0e078                serial_tstc
                0x57e0e048                serial_putc
                0x57e0e110                serial_init
                0x57e0e090                serial_puts
                0x57e0e028                serial_getc
 .text          0x57e0e148       0xec common/libcommon.a(cmd_bdinfo.o)
                0x57e0e15c                do_bdinfo
 .text          0x57e0e234       0x90 common/libcommon.a(cmd_boot.o)
                0x57e0e24c                do_go
                0x57e0e234                do_go_exec
 .text          0x57e0e2c4      0xd80 common/libcommon.a(cmd_bootm.o)
                0x57e0e500                do_bootd
                0x57e0e2ec                arch_preboot_os
                0x57e0edc0                do_bootm
                0x57e0ec10                do_bootm_subcommand
                0x57e0e2ec                __arch_preboot_os
                0x57e0e494                do_iminfo
 .text          0x57e0f044       0xbc common/libcommon.a(cmd_bootzImage.o)
                0x57e0f044                do_bootzImage
 .text          0x57e0f100      0x12c common/libcommon.a(cmd_cache.o)
                0x57e0f13c                do_dcache
                0x57e0f1b4                do_icache
 .text          0x57e0f22c       0xf0 common/libcommon.a(cmd_console.o)
                0x57e0f22c                do_coninfo
 .text          0x57e0f31c       0x80 common/libcommon.a(cmd_echo.o)
                0x57e0f31c                do_echo
 .text          0x57e0f39c      0x470 common/libcommon.a(cmd_elf.o)
                0x57e0f774                do_bootelf
                0x57e0f4a8                do_bootvx
                0x57e0f434                valid_elf_image
                0x57e0f730                do_bootelf_exec
                0x57e0f39c                load_elf_image
 .text          0x57e0f80c       0x30 common/libcommon.a(cmd_exit.o)
                0x57e0f80c                do_exit
 .text          0x57e0f83c      0x460 common/libcommon.a(cmd_ext2.o)
                0x57e0fb64                do_ext2ls
                0x57e0f83c                do_ext2load
 .text          0x57e0fc9c      0x364 common/libcommon.a(cmd_fat.o)
                0x57e0fe7c                do_fat_fsload
                0x57e0fc9c                do_fat_fsinfo
                0x57e0fd74                do_fat_ls
 .text          0x57e10000      0xb04 common/libcommon.a(cmd_flash.o)
                0x57e10a88                do_flinfo
                0x57e10828                flash_sect_erase
                0x57e10580                do_protect
                0x57e10904                do_flerase
                0x57e10274                flash_sect_protect
                0x57e10000                flash_sect_roundb
 .text          0x57e10b04       0x4c common/libcommon.a(cmd_help.o)
                0x57e10b04                do_help
 .text          0x57e10b50      0x304 common/libcommon.a(cmd_itest.o)
                0x57e10bd8                binary_test
                0x57e10db8                do_itest
 .text          0x57e10e54      0xce8 common/libcommon.a(cmd_load.o)
                0x57e10ee0                k_data_init
                0x57e10fc0                s1_sendpacket
                0x57e10fec                handle_send_packet
                0x57e10f20                k_data_restore
                0x57e111b0                send_nack
                0x57e113d0                do_load_serial_bin
                0x57e10f40                k_data_char
                0x57e10e74                chk1
                0x57e10f00                k_data_save
                0x57e10e54                ktrans
                0x57e10f90                send_pad
                0x57e11210                send_ack
                0x57e11a5c                do_load_serial
 .text          0x57e11b3c      0x97c common/libcommon.a(cmd_mem.o)
                0x57e11be8                do_mem_base
                0x57e12064                do_mem_mw
                0x57e11b3c                do_mem_crc
                0x57e123a0                do_mem_nm
                0x57e123c0                do_mem_mm
                0x57e1212c                do_mem_cp
                0x57e11c2c                do_mem_mtest
                0x57e11ecc                do_mem_cmp
                0x57e11dd4                do_mem_loop
                0x57e123e0                do_mem_md
 .text          0x57e124b8       0x88 common/libcommon.a(cmd_misc.o)
                0x57e124b8                do_sleep
 .text          0x57e12540      0xe70 common/libcommon.a(cmd_nand.o)
                0x57e126b4                do_nandboot
                0x57e12c10                do_nand
 .text          0x57e133b0      0x3c8 common/libcommon.a(cmd_net.o)
                0x57e13754                do_rarpb
                0x57e133b0                do_ping
                0x57e13760                do_tftpb
                0x57e1376c                do_bootp
                0x57e13748                do_nfs
 .text          0x57e13778      0x85c common/libcommon.a(cmd_nvedit.o)
                0x57e138b8                getenv
                0x57e13920                _do_setenv
                0x57e137e8                getenv_r
                0x57e13f40                do_printenv
                0x57e13d9c                setenv
                0x57e13778                get_env_id
                0x57e1388c                do_saveenv
                0x57e13d70                do_setenv
                0x57e13de8                do_editenv
                0x57e13788                envmatch
 .text          0x57e13fd4        0x8 common/libcommon.a(cmd_reginfo.o)
                0x57e13fd4                do_reginfo
 .text          0x57e13fdc      0x194 common/libcommon.a(cmd_source.o)
                0x57e13ffc                source
                0x57e1412c                do_source
 .text          0x57e14170      0x48c common/libcommon.a(cmd_test.o)
                0x57e14180                do_test
                0x57e14170                do_false
                0x57e14178                do_true
 .text          0x57e145fc     0x1160 common/libcommon.a(cmd_usb.o)
                0x57e150e8                usb_display_conf_desc
                0x57e14c94                usb_show_tree_graph
                0x57e145fc                usb_get_class_desc
                0x57e146a4                usb_display_ep_desc
                0x57e14ef0                usb_display_desc
                0x57e14778                usb_display_class_sub
                0x57e14ebc                usb_show_tree
                0x57e15020                usb_display_string
                0x57e15060                usb_display_if_desc
                0x57e15194                usb_display_config
                0x57e148ec                do_usbboot
                0x57e15224                do_usb
 .text          0x57e1575c     0x2b48 common/libcommon.a(cmd_usbd.o)
                0x57e173d8                s3c_usb_dma_in_done
                0x57e174e8                s3c_usb_set_all_outep_nak
                0x57e17830                s3c_usb_clear_upfile_info
                0x57e17a34                s3c_usb_verify_checksum
                0x57e178a0                s3c_usb_set_opmode
                0x57e17cb8                s3c_usb_pkt_receive
                0x57e17ea0                s3c_usb_transfer
                0x57e177f0                s3c_usb_clear_dnfile_info
                0x57e16dd4                s3c_usb_int_bulkin
                0x57e15824                s3c_usb_set_inep_xfersize
                0x57e16110                s3c_usb_transfer_ep0
                0x57e15ff0                s3c_usb_set_otherspeed_conf_desc
                0x57e157ac                s3c_usb_set_soft_disconnect
                0x57e17510                s3c_usb_clear_all_outep_nak
                0x57e180e4                s3c_usbctl_init
                0x57e1763c                s3c_usb_set_descriptors
                0x57e17c68                s3c_usb_int_bulkout
                0x57e17fc4                s3c_udc_int_hndlr
                0x57e15850                s3c_usb_set_outep_xfersize
                0x57e1581c                s3c_usb_stop
                0x57e157d4                s3c_usb_init_device
                0x57e17870                s3c_usb_check_setconf
                0x57e15bd0                s3c_usb_set_feature
                0x57e17d84                s3c_usb_dma_out_done
                0x57e15dd8                s3c_usb_ep0_int_hndlr
                0x57e175e8                s3c_usb_set_endpoint
                0x57e17afc                s3c_usb_download_continue
                0x57e158d8                s3c_usb_write_in_fifo
                0x57e18060                s3c_usb_wait_cable_insert
                0x57e15b54                s3c_usb_clear_feature
                0x57e15814                s3c_usbc_activate
                0x57e15880                s3c_usb_write_ep0_fifo
                0x57e171cc                s3c_usb_download_start
                0x57e17538                s3c_usb_set_max_pktsize
                0x57e15798                s3c_usb_check_current_mode
                0x57e15d30                s3c_usb_get_status
                0x57e177d8                s3c_usb_check_speed
                0x57e16fa0                s3c_usb_upload_start
                0x57e1577c                s3c_usb_init_core
                0x57e157c0                s3c_usb_clear_soft_disconnect
                0x57e1575c                s3c_usb_core_soft_reset
                0x57e17d38                s3c_usb_print_pkt
                0x57e179d8                s3c_usb_set_init
                0x57e17970                s3c_usb_reset
                0x57e15984                s3c_usb_get_desc
                0x57e15930                s3c_usb_read_out_fifo
                0x57e181a8                do_usbd_dnw
                0x57e180ac                s3c_usb_init_phy
 .text          0x57e182a4       0x20 common/libcommon.a(cmd_version.o)
                0x57e182a4                do_version
 .text          0x57e182c4      0x2d8 common/libcommon.a(cmd_ximg.o)
                0x57e182c4                do_imgextract
 .text          0x57e1859c      0x318 common/libcommon.a(command.o)
                0x57e18674                find_cmd_tbl
                0x57e18614                cmd_usage
                0x57e1870c                find_cmd
                0x57e1859c                cmd_get_data_size
                0x57e18734                _do_help
 .text          0x57e188b4      0x55c common/libcommon.a(console.o)
                0x57e18c4c                console_init_r
                0x57e18b54                printf
                0x57e18a84                console_assign
                0x57e18da8                getc
                0x57e18a5c                search_device
                0x57e18b0c                puts
                0x57e18a40                dbg
                0x57e18d34                serial_printf
                0x57e18984                ftstc
                0x57e18ac4                fprintf
                0x57e18d90                tstc
                0x57e18b28                vprintf
                0x57e18dc0                ctrlc
                0x57e18d74                putc
                0x57e18a04                disable_ctrlc
                0x57e1895c                fgetc
                0x57e18a1c                had_ctrlc
                0x57e189ac                fputc
                0x57e18a4c                console_init_f
                0x57e18a2c                clear_ctrlc
                0x57e18b94                stdio_print_current_devices
                0x57e189d8                fputs
 .text          0x57e18e10     0x10d4 common/libcommon.a(dlmalloc.o)
                0x57e19150                malloc
                0x57e1987c                pvalloc
                0x57e1995c                calloc
                0x57e198a0                malloc_usable_size
                0x57e19a3c                mem_malloc_init
                0x57e19a68                realloc
                0x57e18e44                malloc_trim
                0x57e18e10                sbrk
                0x57e198e4                mallopt
                0x57e1976c                memalign
                0x57e1914c                cfree
                0x57e19894                valloc
                0x57e18f10                free
 .text          0x57e19ee4      0x138 common/libcommon.a(env_common.o)
                0x57e19f24                env_get_char
                0x57e19f04                env_get_addr
                0x57e19f80                set_default_env
                0x57e19fc4                env_relocate
                0x57e19f54                env_crc_update
                0x57e19ee4                env_get_char_memory
 .text          0x57e1a01c      0x2e8 common/libcommon.a(env_nand.o)
                0x57e1a218                env_relocate_spec
                0x57e1a264                saveenv
                0x57e1a02c                env_get_char_spec
                0x57e1a198                env_init
                0x57e1a038                writeenv
                0x57e1a0e8                readenv
 .text          0x57e1a304      0x1d4 common/libcommon.a(exports.o)
                0x57e1a310                jumptable_init
                0x57e1a308                get_version
 .text          0x57e1a4d8      0x384 common/libcommon.a(flash.o)
                0x57e1a6f8                flash_write
                0x57e1a4d8                flash_protect
                0x57e1a5d0                addr2info
                0x57e1a618                flash_perror
 .text          0x57e1a85c     0x1d94 common/libcommon.a(hush.o)
                0x57e1ab2c                new_pipe
                0x57e1a998                mapset
                0x57e1bd64                parse_string_outer
                0x57e1b6d0                update_ifs_map
                0x57e1b520                set_local_var
                0x57e1bd20                parse_file_outer
                0x57e1a878                simple_itoa
                0x57e1ae2c                unset_local_var
                0x57e1a9d0                do_showvar
                0x57e1aff0                reserved_word
                0x57e1aabc                u_boot_hush_start
 .text          0x57e1c5f0      0x7a4 common/libcommon.a(image.o)
                0x57e1ca78                getenv_bootm_size
                0x57e1c88c                image_print_contents
                0x57e1c734                genimg_get_comp_id
                0x57e1c77c                genimg_get_os_id
                0x57e1c654                get_table_entry_name
                0x57e1c6e0                genimg_has_config
                0x57e1c764                genimg_get_arch_id
                0x57e1c694                genimg_get_arch_name
                0x57e1cb48                boot_get_ramdisk
                0x57e1caf4                image_check_hcrc
                0x57e1c67c                genimg_get_os_name
                0x57e1c6ac                genimg_get_type_name
                0x57e1c7b8                genimg_get_format
                0x57e1c6c4                genimg_get_comp_name
                0x57e1caac                image_check_dcrc
                0x57e1c860                genimg_print_size
                0x57e1ca24                getenv_bootm_low
                0x57e1c6dc                genimg_get_image
                0x57e1c74c                genimg_get_type_id
                0x57e1c62c                image_multi_count
                0x57e1ca20                memmove_wd
                0x57e1c6e8                get_table_entry_id
                0x57e1c7dc                image_multi_getimg
                0x57e1ca54                getenv_yesno
 .text          0x57e1cd94     0x10c8 common/libcommon.a(main.o)
                0x57e1cd94                __show_boot_progress
                0x57e1ce94                run_command
                0x57e1ce24                do_run
                0x57e1cd98                parse_line
                0x57e1dd20                readline
                0x57e1cd94                show_boot_progress
                0x57e1dd3c                main_loop
                0x57e1d4b0                readline_into_buffer
 .text          0x57e1de5c      0x2dc common/libcommon.a(s_record.o)
                0x57e1dec8                srec_decode
 .text          0x57e1e138      0x174 common/libcommon.a(stdio.o)
                0x57e1e144                stdio_clone
                0x57e1e138                stdio_get_list
                0x57e1e258                stdio_get_by_name
                0x57e1e1cc                stdio_init
                0x57e1e18c                stdio_register
 .text          0x57e1e2ac     0x16cc common/libcommon.a(usb.o)
                0x57e1ed8c                usb_set_idle
                0x57e1e2c4                usb_maxpacket
                0x57e1f574                usb_hub_probe
                0x57e1e644                usb_stop
                0x57e1f8fc                usb_init
                0x57e1e2ac                usb_disable_asynch
                0x57e1f0cc                usb_clear_halt
                0x57e1e6a4                usb_bulk_msg
                0x57e1ecac                usb_get_class_descriptor
                0x57e1f880                usb_scan_devices
                0x57e1e9c0                usb_get_hub_descriptor
                0x57e1e7f8                usb_get_port_status
                0x57e1e640                usb_submit_int_msg
                0x57e1e4ec                usb_parse_config
                0x57e1e708                usb_control_msg
                0x57e1edf0                usb_set_protocol
                0x57e1f264                usb_hub_port_connect_change
                0x57e1eeb8                usb_set_interface
                0x57e1e408                usb_hub_allocate
                0x57e1ebac                usb_string
                0x57e1ed1c                usb_get_report
                0x57e1efc8                usb_get_descriptor
                0x57e1f35c                usb_hub_configure
                0x57e1ea1c                usb_get_string
                0x57e1e680                wait_ms
                0x57e1e96c                usb_clear_hub_feature
                0x57e1f034                usb_get_configuration_no
                0x57e1e90c                usb_clear_port_feature
                0x57e1e8ac                usb_set_port_feature
                0x57e1f5d4                usb_new_device
                0x57e1e858                usb_get_hub_status
                0x57e1ee50                usb_set_configuration
                0x57e1e360                usb_set_maxpacket
                0x57e1ef84                usb_set_address
                0x57e1e44c                usb_alloc_new_device
                0x57e1e3f4                usb_hub_reset
                0x57e1e3c4                usb_get_dev_index
 .text          0x57e1f978     0x15c8 common/libcommon.a(usb_storage.o)
                0x57e1fd64                usb_storage_probe
                0x57e20cd8                usb_stor_CB_transport
                0x57e20730                usb_stor_CB_comdat
                0x57e201ac                usb_stor_write
                0x57e1f998                usb_stor_get_dev
                0x57e203c0                usb_stor_read
                0x57e1f9d4                usb_show_progress
                0x57e205d4                usb_stor_scan
                0x57e20960                usb_stor_BBB_comdat
                0x57e20ed0                usb_stor_info
                0x57e1fab8                usb_stor_get_info
                0x57e1ff94                usb_stor_BBB_clear_endpt_stall
                0x57e20c08                usb_stor_CBI_get_status
                0x57e20a3c                usb_stor_BBB_transport
 .text          0x57e20f40      0x9dc common/libcommon.a(xyzModem.o)
                0x57e21068                xyzModem_error
                0x57e21104                xyzModem_stream_close
                0x57e21158                CYGACC_COMM_IF_GETC_TIMEOUT
                0x57e20f40                parse_num
                0x57e211d4                xyzModem_stream_terminate
                0x57e217b8                xyzModem_stream_open
                0x57e21150                CYGACC_COMM_IF_PUTC
                0x57e2152c                xyzModem_stream_read
 .text          0x57e2191c       0xc0 board/samsung/smdk6410/libsmdk6410.a(smdk6410.o)
                0x57e21978                dram_init
                0x57e219bc                board_eth_init
                0x57e219c4                checkboard
                0x57e2191c                board_init
                0x57e21998                board_flash_get_legacy
 .text          0x57e219dc       0x48 lib_generic/libgeneric.a(crc16.o)
                0x57e219dc                cyg_crc16
 .text          0x57e21a24      0x110 lib_generic/libgeneric.a(crc32.o)
                0x57e21b1c                crc32
                0x57e21b30                crc32_wd
                0x57e21a24                crc32_no_comp
 .text          0x57e21b34      0x1d4 lib_generic/libgeneric.a(gunzip.o)
                0x57e21c28                gunzip
                0x57e21cf0                zfree
                0x57e21b34                zunzip
                0x57e21cf8                zalloc
 .text          0x57e21d08     0x27cc lib_generic/libgeneric.a(zlib.o)
                0x57e22d90                inflate
                0x57e21d08                inflate_fast
                0x57e229ac                inflateInit_
                0x57e22a44                adler32
                0x57e22d80                zcfree
                0x57e22808                inflateReset
                0x57e22d88                zcalloc
                0x57e229bc                inflateEnd
                0x57e228a4                inflateInit2_
                0x57e22270                inflate_table
 .text          0x57e244d4       0x20 cpu/arm1176/s3c64xx/libs3c64xx.a(reset.o)
                0x57e244d4                reset_cpu
 .text          0x57e244f4      0x1c8 lib_arm/libarm.a(bootm.o)
                0x57e244f4                do_bootm_linux
 .text          0x57e246bc        0x4 lib_arm/libarm.a(cache.o)
                0x57e246bc                flush_cache
 .text          0x57e246c0       0xc8 lib_arm/libarm.a(cache-cp15.o)
                0x57e24764                dcache_enable
                0x57e24740                icache_enable
                0x57e24748                icache_disable
                0x57e24774                dcache_status
                0x57e24750                icache_status
                0x57e2476c                dcache_disable
 .text          0x57e24788     0x12e8 fs/fat/libfat.a(fat.o)
                0x57e2593c                file_fat_read
                0x57e24fec                do_fat_read
                0x57e25974                file_fat_ls
                0x57e24e8c                file_fat_detectfs
                0x57e247b4                disk_read
                0x57e25984                fat_register_device
 .text          0x57e25a70      0xe4c fs/ext2/libext2fs.a(ext2fs.o)
                0x57e25d04                ext2fs_read_file
                0x57e25c50                ext2fs_close
                0x57e25b68                ext2fs_mount
                0x57e26848                ext2fs_ls
                0x57e26738                ext2fs_find_file
                0x57e267b4                ext2fs_open
                0x57e25c30                ext2fs_free_node
                0x57e261f4                ext2fs_read
                0x57e264a4                ext2fs_find_file1
 .text          0x57e268bc      0x21c fs/ext2/libext2fs.a(dev.o)
                0x57e26a8c                ext2fs_set_blk_dev
                0x57e268bc                ext2fs_devread
 .text          0x57e26ad8      0x374 disk/libdisk.a(part.o)
                0x57e26bb4                dev_print
                0x57e26ad8                print_part
                0x57e26df4                get_dev
                0x57e26db4                get_partition_info
                0x57e26dd8                init_part
 .text          0x57e26e4c      0x4c8 disk/libdisk.a(part_dos.o)
                0x57e27110                get_partition_info_dos
                0x57e272e8                print_part_dos
                0x57e26e94                test_part_dos
 .text          0x57e27314      0x768 drivers/mtd/nand/libnand.a(nand_util.o)
                0x57e275bc                nand_write_skip_bad
                0x57e27410                nand_read_skip_bad
                0x57e27780                nand_erase_opts
 .text          0x57e27a7c     0x190c drivers/usb/host/libusb_host.a(ohci-hcd.o)
                0x57e27b04                rh_check_port_status
                0x57e27f14                usb_lowlevel_stop
                0x57e2866c                sohci_submit_job
                0x57e2849c                usb_event_poll
                0x57e28ce4                submit_int_msg
                0x57e29370                submit_bulk_msg
                0x57e28d00                submit_control_msg
                0x57e284a0                usb_lowlevel_init
                0x57e28b9c                submit_common_msg
 .text          0x57e29388       0x50 drivers/usb/host/libusb_host.a(s3c64xx-hcd.o)
                0x57e29388                usb_cpu_init
                0x57e293a4                usb_cpu_stop
                0x57e293c0                usb_cpu_init_fail
 .text          0x57e293d8       0x24 cpu/arm1176/libarm1176.a(cpu.o)
                0x57e293d8                cleanup_before_linux
 .text          0x57e293fc       0x1c /home/linx/Git/uboot2010/lib_arm/eabi_compat.o
                0x57e293fc                raise
 .text          0x57e29418      0x114 /usr/local/arm/4.3.2/bin/../lib/gcc/arm-none-linux-gnueabi/4.3.2/armv4t/libgcc.a(_udivsi3.o)
                0x57e29418                __udivsi3
                0x57e29418                __aeabi_uidiv
                0x57e2950c                __aeabi_uidivmod
 .text          0x57e2952c      0x148 /usr/local/arm/4.3.2/bin/../lib/gcc/arm-none-linux-gnueabi/4.3.2/armv4t/libgcc.a(_divsi3.o)
                0x57e2952c                __aeabi_idiv
                0x57e2952c                __divsi3
                0x57e29654                __aeabi_idivmod
 .text          0x57e29674       0x1c /usr/local/arm/4.3.2/bin/../lib/gcc/arm-none-linux-gnueabi/4.3.2/armv4t/libgcc.a(_lshrdi3.o)
                0x57e29674                __aeabi_llsr
                0x57e29674                __lshrdi3
 .text          0x57e29690       0x1c /usr/local/arm/4.3.2/bin/../lib/gcc/arm-none-linux-gnueabi/4.3.2/armv4t/libgcc.a(_ashrdi3.o)
                0x57e29690                __ashrdi3
                0x57e29690                __aeabi_lasr
 .text          0x57e296ac       0x1c /usr/local/arm/4.3.2/bin/../lib/gcc/arm-none-linux-gnueabi/4.3.2/armv4t/libgcc.a(_ashldi3.o)
                0x57e296ac                __ashldi3
                0x57e296ac                __aeabi_llsl
 .text          0x57e296c8       0x14 /usr/local/arm/4.3.2/bin/../lib/gcc/arm-none-linux-gnueabi/4.3.2/armv4t/libgcc.a(_dvmd_lnx.o)
                0x57e296c8                __aeabi_ldiv0
                0x57e296c8                __aeabi_idiv0

.glue_7         0x57e296dc        0x0
 .glue_7        0x57e296dc        0x0 cpu/arm1176/start.o
 .glue_7        0x57e296dc        0x0 cpu/arm1176/s3c64xx/cpu_init.o
 .glue_7        0x57e296dc        0x0 board/samsung/smdk6410/lowlevel_init.o
 .glue_7        0x57e296dc        0x0 cpu/arm1176/nand_cp.o
 .glue_7        0x57e296dc        0x0 lib_arm/board.o
 .glue_7        0x57e296dc        0x0 lib_generic/libgeneric.a(display_options.o)
 .glue_7        0x57e296dc        0x0 lib_generic/libgeneric.a(net_utils.o)
 .glue_7        0x57e296dc        0x0 lib_generic/libgeneric.a(string.o)
 .glue_7        0x57e296dc        0x0 lib_generic/libgeneric.a(vsprintf.o)
 .glue_7        0x57e296dc        0x0 lib_generic/libgeneric.a(ctype.o)
 .glue_7        0x57e296dc        0x0 lib_generic/libgeneric.a(div64.o)
 .glue_7        0x57e296dc        0x0 lib_generic/libgeneric.a(time.o)
 .glue_7        0x57e296dc        0x0 cpu/arm1176/s3c64xx/libs3c64xx.a(speed.o)
 .glue_7        0x57e296dc        0x0 cpu/arm1176/s3c64xx/libs3c64xx.a(timer.o)
 .glue_7        0x57e296dc        0x0 lib_arm/libarm.a(interrupts.o)
 .glue_7        0x57e296dc        0x0 lib_arm/libarm.a(reset.o)
 .glue_7        0x57e296dc        0x0 net/libnet.a(eth.o)
 .glue_7        0x57e296dc        0x0 net/libnet.a(net.o)
 .glue_7        0x57e296dc        0x0 net/libnet.a(nfs.o)
 .glue_7        0x57e296dc        0x0 net/libnet.a(rarp.o)
 .glue_7        0x57e296dc        0x0 net/libnet.a(tftp.o)
 .glue_7        0x57e296dc        0x0 net/libnet.a(bootp.o)
 .glue_7        0x57e296dc        0x0 drivers/mtd/libmtd.a(cfi_flash.o)
 .glue_7        0x57e296dc        0x0 drivers/mtd/libmtd.a(jedec_flash.o)
 .glue_7        0x57e296dc        0x0 drivers/mtd/nand/libnand.a(nand.o)
 .glue_7        0x57e296dc        0x0 drivers/mtd/nand/libnand.a(nand_base.o)
 .glue_7        0x57e296dc        0x0 drivers/mtd/nand/libnand.a(nand_bbt.o)
 .glue_7        0x57e296dc        0x0 drivers/mtd/nand/libnand.a(nand_ecc.o)
 .glue_7        0x57e296dc        0x0 drivers/mtd/nand/libnand.a(nand_ids.o)
 .glue_7        0x57e296dc        0x0 drivers/mtd/nand/libnand.a(s3c64xx.o)
 .glue_7        0x57e296dc        0x0 drivers/net/libnet.a(dm9000x.o)
 .glue_7        0x57e296dc        0x0 drivers/serial/libserial.a(s3c64xx.o)
 .glue_7        0x57e296dc        0x0 common/libcommon.a(cmd_bdinfo.o)
 .glue_7        0x57e296dc        0x0 common/libcommon.a(cmd_boot.o)
 .glue_7        0x57e296dc        0x0 common/libcommon.a(cmd_bootm.o)
 .glue_7        0x57e296dc        0x0 common/libcommon.a(cmd_bootzImage.o)
 .glue_7        0x57e296dc        0x0 common/libcommon.a(cmd_cache.o)
 .glue_7        0x57e296dc        0x0 common/libcommon.a(cmd_console.o)
 .glue_7        0x57e296dc        0x0 common/libcommon.a(cmd_echo.o)
 .glue_7        0x57e296dc        0x0 common/libcommon.a(cmd_elf.o)
 .glue_7        0x57e296dc        0x0 common/libcommon.a(cmd_exit.o)
 .glue_7        0x57e296dc        0x0 common/libcommon.a(cmd_ext2.o)
 .glue_7        0x57e296dc        0x0 common/libcommon.a(cmd_fat.o)
 .glue_7        0x57e296dc        0x0 common/libcommon.a(cmd_flash.o)
 .glue_7        0x57e296dc        0x0 common/libcommon.a(cmd_help.o)
 .glue_7        0x57e296dc        0x0 common/libcommon.a(cmd_itest.o)
 .glue_7        0x57e296dc        0x0 common/libcommon.a(cmd_load.o)
 .glue_7        0x57e296dc        0x0 common/libcommon.a(cmd_mem.o)
 .glue_7        0x57e296dc        0x0 common/libcommon.a(cmd_misc.o)
 .glue_7        0x57e296dc        0x0 common/libcommon.a(cmd_nand.o)
 .glue_7        0x57e296dc        0x0 common/libcommon.a(cmd_net.o)
 .glue_7        0x57e296dc        0x0 common/libcommon.a(cmd_nvedit.o)
 .glue_7        0x57e296dc        0x0 common/libcommon.a(cmd_reginfo.o)
 .glue_7        0x57e296dc        0x0 common/libcommon.a(cmd_source.o)
 .glue_7        0x57e296dc        0x0 common/libcommon.a(cmd_test.o)
 .glue_7        0x57e296dc        0x0 common/libcommon.a(cmd_usb.o)
 .glue_7        0x57e296dc        0x0 common/libcommon.a(cmd_usbd.o)
 .glue_7        0x57e296dc        0x0 common/libcommon.a(cmd_version.o)
 .glue_7        0x57e296dc        0x0 common/libcommon.a(cmd_ximg.o)
 .glue_7        0x57e296dc        0x0 common/libcommon.a(command.o)
 .glue_7        0x57e296dc        0x0 common/libcommon.a(console.o)
 .glue_7        0x57e296dc        0x0 common/libcommon.a(dlmalloc.o)
 .glue_7        0x57e296dc        0x0 common/libcommon.a(env_common.o)
 .glue_7        0x57e296dc        0x0 common/libcommon.a(env_nand.o)
 .glue_7        0x57e296dc        0x0 common/libcommon.a(exports.o)
 .glue_7        0x57e296dc        0x0 common/libcommon.a(flash.o)
 .glue_7        0x57e296dc        0x0 common/libcommon.a(hush.o)
 .glue_7        0x57e296dc        0x0 common/libcommon.a(image.o)
 .glue_7        0x57e296dc        0x0 common/libcommon.a(main.o)
 .glue_7        0x57e296dc        0x0 common/libcommon.a(s_record.o)
 .glue_7        0x57e296dc        0x0 common/libcommon.a(stdio.o)
 .glue_7        0x57e296dc        0x0 common/libcommon.a(usb.o)
 .glue_7        0x57e296dc        0x0 common/libcommon.a(usb_storage.o)
 .glue_7        0x57e296dc        0x0 common/libcommon.a(xyzModem.o)
 .glue_7        0x57e296dc        0x0 board/samsung/smdk6410/libsmdk6410.a(smdk6410.o)
 .glue_7        0x57e296dc        0x0 lib_generic/libgeneric.a(crc16.o)
 .glue_7        0x57e296dc        0x0 lib_generic/libgeneric.a(crc32.o)
 .glue_7        0x57e296dc        0x0 lib_generic/libgeneric.a(gunzip.o)
 .glue_7        0x57e296dc        0x0 lib_generic/libgeneric.a(zlib.o)
 .glue_7        0x57e296dc        0x0 cpu/arm1176/s3c64xx/libs3c64xx.a(reset.o)
 .glue_7        0x57e296dc        0x0 lib_arm/libarm.a(bootm.o)
 .glue_7        0x57e296dc        0x0 lib_arm/libarm.a(cache.o)
 .glue_7        0x57e296dc        0x0 lib_arm/libarm.a(cache-cp15.o)
 .glue_7        0x57e296dc        0x0 fs/fat/libfat.a(fat.o)
 .glue_7        0x57e296dc        0x0 fs/ext2/libext2fs.a(ext2fs.o)
 .glue_7        0x57e296dc        0x0 fs/ext2/libext2fs.a(dev.o)
 .glue_7        0x57e296dc        0x0 disk/libdisk.a(part.o)
 .glue_7        0x57e296dc        0x0 disk/libdisk.a(part_dos.o)
 .glue_7        0x57e296dc        0x0 drivers/mtd/nand/libnand.a(nand_util.o)
 .glue_7        0x57e296dc        0x0 drivers/usb/host/libusb_host.a(ohci-hcd.o)
 .glue_7        0x57e296dc        0x0 drivers/usb/host/libusb_host.a(s3c64xx-hcd.o)
 .glue_7        0x57e296dc        0x0 cpu/arm1176/libarm1176.a(cpu.o)
 .glue_7        0x57e296dc        0x0 /home/linx/Git/uboot2010/lib_arm/eabi_compat.o
 .glue_7        0x57e296dc        0x0 /usr/local/arm/4.3.2/bin/../lib/gcc/arm-none-linux-gnueabi/4.3.2/armv4t/libgcc.a(_udivsi3.o)
 .glue_7        0x57e296dc        0x0 /usr/local/arm/4.3.2/bin/../lib/gcc/arm-none-linux-gnueabi/4.3.2/armv4t/libgcc.a(_divsi3.o)
 .glue_7        0x57e296dc        0x0 /usr/local/arm/4.3.2/bin/../lib/gcc/arm-none-linux-gnueabi/4.3.2/armv4t/libgcc.a(_lshrdi3.o)
 .glue_7        0x57e296dc        0x0 /usr/local/arm/4.3.2/bin/../lib/gcc/arm-none-linux-gnueabi/4.3.2/armv4t/libgcc.a(_ashrdi3.o)
 .glue_7        0x57e296dc        0x0 /usr/local/arm/4.3.2/bin/../lib/gcc/arm-none-linux-gnueabi/4.3.2/armv4t/libgcc.a(_ashldi3.o)
 .glue_7        0x57e296dc        0x0 /usr/local/arm/4.3.2/bin/../lib/gcc/arm-none-linux-gnueabi/4.3.2/armv4t/libgcc.a(_dvmd_lnx.o)

.glue_7t        0x57e296dc        0x0
 .glue_7t       0x57e296dc        0x0 cpu/arm1176/start.o
 .glue_7t       0x57e296dc        0x0 cpu/arm1176/s3c64xx/cpu_init.o
 .glue_7t       0x57e296dc        0x0 board/samsung/smdk6410/lowlevel_init.o
 .glue_7t       0x57e296dc        0x0 cpu/arm1176/nand_cp.o
 .glue_7t       0x57e296dc        0x0 lib_arm/board.o
 .glue_7t       0x57e296dc        0x0 lib_generic/libgeneric.a(display_options.o)
 .glue_7t       0x57e296dc        0x0 lib_generic/libgeneric.a(net_utils.o)
 .glue_7t       0x57e296dc        0x0 lib_generic/libgeneric.a(string.o)
 .glue_7t       0x57e296dc        0x0 lib_generic/libgeneric.a(vsprintf.o)
 .glue_7t       0x57e296dc        0x0 lib_generic/libgeneric.a(ctype.o)
 .glue_7t       0x57e296dc        0x0 lib_generic/libgeneric.a(div64.o)
 .glue_7t       0x57e296dc        0x0 lib_generic/libgeneric.a(time.o)
 .glue_7t       0x57e296dc        0x0 cpu/arm1176/s3c64xx/libs3c64xx.a(speed.o)
 .glue_7t       0x57e296dc        0x0 cpu/arm1176/s3c64xx/libs3c64xx.a(timer.o)
 .glue_7t       0x57e296dc        0x0 lib_arm/libarm.a(interrupts.o)
 .glue_7t       0x57e296dc        0x0 lib_arm/libarm.a(reset.o)
 .glue_7t       0x57e296dc        0x0 net/libnet.a(eth.o)
 .glue_7t       0x57e296dc        0x0 net/libnet.a(net.o)
 .glue_7t       0x57e296dc        0x0 net/libnet.a(nfs.o)
 .glue_7t       0x57e296dc        0x0 net/libnet.a(rarp.o)
 .glue_7t       0x57e296dc        0x0 net/libnet.a(tftp.o)
 .glue_7t       0x57e296dc        0x0 net/libnet.a(bootp.o)
 .glue_7t       0x57e296dc        0x0 drivers/mtd/libmtd.a(cfi_flash.o)
 .glue_7t       0x57e296dc        0x0 drivers/mtd/libmtd.a(jedec_flash.o)
 .glue_7t       0x57e296dc        0x0 drivers/mtd/nand/libnand.a(nand.o)
 .glue_7t       0x57e296dc        0x0 drivers/mtd/nand/libnand.a(nand_base.o)
 .glue_7t       0x57e296dc        0x0 drivers/mtd/nand/libnand.a(nand_bbt.o)
 .glue_7t       0x57e296dc        0x0 drivers/mtd/nand/libnand.a(nand_ecc.o)
 .glue_7t       0x57e296dc        0x0 drivers/mtd/nand/libnand.a(nand_ids.o)
 .glue_7t       0x57e296dc        0x0 drivers/mtd/nand/libnand.a(s3c64xx.o)
 .glue_7t       0x57e296dc        0x0 drivers/net/libnet.a(dm9000x.o)
 .glue_7t       0x57e296dc        0x0 drivers/serial/libserial.a(s3c64xx.o)
 .glue_7t       0x57e296dc        0x0 common/libcommon.a(cmd_bdinfo.o)
 .glue_7t       0x57e296dc        0x0 common/libcommon.a(cmd_boot.o)
 .glue_7t       0x57e296dc        0x0 common/libcommon.a(cmd_bootm.o)
 .glue_7t       0x57e296dc        0x0 common/libcommon.a(cmd_bootzImage.o)
 .glue_7t       0x57e296dc        0x0 common/libcommon.a(cmd_cache.o)
 .glue_7t       0x57e296dc        0x0 common/libcommon.a(cmd_console.o)
 .glue_7t       0x57e296dc        0x0 common/libcommon.a(cmd_echo.o)
 .glue_7t       0x57e296dc        0x0 common/libcommon.a(cmd_elf.o)
 .glue_7t       0x57e296dc        0x0 common/libcommon.a(cmd_exit.o)
 .glue_7t       0x57e296dc        0x0 common/libcommon.a(cmd_ext2.o)
 .glue_7t       0x57e296dc        0x0 common/libcommon.a(cmd_fat.o)
 .glue_7t       0x57e296dc        0x0 common/libcommon.a(cmd_flash.o)
 .glue_7t       0x57e296dc        0x0 common/libcommon.a(cmd_help.o)
 .glue_7t       0x57e296dc        0x0 common/libcommon.a(cmd_itest.o)
 .glue_7t       0x57e296dc        0x0 common/libcommon.a(cmd_load.o)
 .glue_7t       0x57e296dc        0x0 common/libcommon.a(cmd_mem.o)
 .glue_7t       0x57e296dc        0x0 common/libcommon.a(cmd_misc.o)
 .glue_7t       0x57e296dc        0x0 common/libcommon.a(cmd_nand.o)
 .glue_7t       0x57e296dc        0x0 common/libcommon.a(cmd_net.o)
 .glue_7t       0x57e296dc        0x0 common/libcommon.a(cmd_nvedit.o)
 .glue_7t       0x57e296dc        0x0 common/libcommon.a(cmd_reginfo.o)
 .glue_7t       0x57e296dc        0x0 common/libcommon.a(cmd_source.o)
 .glue_7t       0x57e296dc        0x0 common/libcommon.a(cmd_test.o)
 .glue_7t       0x57e296dc        0x0 common/libcommon.a(cmd_usb.o)
 .glue_7t       0x57e296dc        0x0 common/libcommon.a(cmd_usbd.o)
 .glue_7t       0x57e296dc        0x0 common/libcommon.a(cmd_version.o)
 .glue_7t       0x57e296dc        0x0 common/libcommon.a(cmd_ximg.o)
 .glue_7t       0x57e296dc        0x0 common/libcommon.a(command.o)
 .glue_7t       0x57e296dc        0x0 common/libcommon.a(console.o)
 .glue_7t       0x57e296dc        0x0 common/libcommon.a(dlmalloc.o)
 .glue_7t       0x57e296dc        0x0 common/libcommon.a(env_common.o)
 .glue_7t       0x57e296dc        0x0 common/libcommon.a(env_nand.o)
 .glue_7t       0x57e296dc        0x0 common/libcommon.a(exports.o)
 .glue_7t       0x57e296dc        0x0 common/libcommon.a(flash.o)
 .glue_7t       0x57e296dc        0x0 common/libcommon.a(hush.o)
 .glue_7t       0x57e296dc        0x0 common/libcommon.a(image.o)
 .glue_7t       0x57e296dc        0x0 common/libcommon.a(main.o)
 .glue_7t       0x57e296dc        0x0 common/libcommon.a(s_record.o)
 .glue_7t       0x57e296dc        0x0 common/libcommon.a(stdio.o)
 .glue_7t       0x57e296dc        0x0 common/libcommon.a(usb.o)
 .glue_7t       0x57e296dc        0x0 common/libcommon.a(usb_storage.o)
 .glue_7t       0x57e296dc        0x0 common/libcommon.a(xyzModem.o)
 .glue_7t       0x57e296dc        0x0 board/samsung/smdk6410/libsmdk6410.a(smdk6410.o)
 .glue_7t       0x57e296dc        0x0 lib_generic/libgeneric.a(crc16.o)
 .glue_7t       0x57e296dc        0x0 lib_generic/libgeneric.a(crc32.o)
 .glue_7t       0x57e296dc        0x0 lib_generic/libgeneric.a(gunzip.o)
 .glue_7t       0x57e296dc        0x0 lib_generic/libgeneric.a(zlib.o)
 .glue_7t       0x57e296dc        0x0 cpu/arm1176/s3c64xx/libs3c64xx.a(reset.o)
 .glue_7t       0x57e296dc        0x0 lib_arm/libarm.a(bootm.o)
 .glue_7t       0x57e296dc        0x0 lib_arm/libarm.a(cache.o)
 .glue_7t       0x57e296dc        0x0 lib_arm/libarm.a(cache-cp15.o)
 .glue_7t       0x57e296dc        0x0 fs/fat/libfat.a(fat.o)
 .glue_7t       0x57e296dc        0x0 fs/ext2/libext2fs.a(ext2fs.o)
 .glue_7t       0x57e296dc        0x0 fs/ext2/libext2fs.a(dev.o)
 .glue_7t       0x57e296dc        0x0 disk/libdisk.a(part.o)
 .glue_7t       0x57e296dc        0x0 disk/libdisk.a(part_dos.o)
 .glue_7t       0x57e296dc        0x0 drivers/mtd/nand/libnand.a(nand_util.o)
 .glue_7t       0x57e296dc        0x0 drivers/usb/host/libusb_host.a(ohci-hcd.o)
 .glue_7t       0x57e296dc        0x0 drivers/usb/host/libusb_host.a(s3c64xx-hcd.o)
 .glue_7t       0x57e296dc        0x0 cpu/arm1176/libarm1176.a(cpu.o)
 .glue_7t       0x57e296dc        0x0 /home/linx/Git/uboot2010/lib_arm/eabi_compat.o
 .glue_7t       0x57e296dc        0x0 /usr/local/arm/4.3.2/bin/../lib/gcc/arm-none-linux-gnueabi/4.3.2/armv4t/libgcc.a(_udivsi3.o)
 .glue_7t       0x57e296dc        0x0 /usr/local/arm/4.3.2/bin/../lib/gcc/arm-none-linux-gnueabi/4.3.2/armv4t/libgcc.a(_divsi3.o)
 .glue_7t       0x57e296dc        0x0 /usr/local/arm/4.3.2/bin/../lib/gcc/arm-none-linux-gnueabi/4.3.2/armv4t/libgcc.a(_lshrdi3.o)
 .glue_7t       0x57e296dc        0x0 /usr/local/arm/4.3.2/bin/../lib/gcc/arm-none-linux-gnueabi/4.3.2/armv4t/libgcc.a(_ashrdi3.o)
 .glue_7t       0x57e296dc        0x0 /usr/local/arm/4.3.2/bin/../lib/gcc/arm-none-linux-gnueabi/4.3.2/armv4t/libgcc.a(_ashldi3.o)
 .glue_7t       0x57e296dc        0x0 /usr/local/arm/4.3.2/bin/../lib/gcc/arm-none-linux-gnueabi/4.3.2/armv4t/libgcc.a(_dvmd_lnx.o)

.vfp11_veneer   0x57e296dc        0x0
 .vfp11_veneer  0x57e296dc        0x0 cpu/arm1176/start.o
 .vfp11_veneer  0x57e296dc        0x0 cpu/arm1176/s3c64xx/cpu_init.o
 .vfp11_veneer  0x57e296dc        0x0 board/samsung/smdk6410/lowlevel_init.o
 .vfp11_veneer  0x57e296dc        0x0 cpu/arm1176/nand_cp.o
 .vfp11_veneer  0x57e296dc        0x0 lib_arm/board.o
 .vfp11_veneer  0x57e296dc        0x0 lib_generic/libgeneric.a(display_options.o)
 .vfp11_veneer  0x57e296dc        0x0 lib_generic/libgeneric.a(net_utils.o)
 .vfp11_veneer  0x57e296dc        0x0 lib_generic/libgeneric.a(string.o)
 .vfp11_veneer  0x57e296dc        0x0 lib_generic/libgeneric.a(vsprintf.o)
 .vfp11_veneer  0x57e296dc        0x0 lib_generic/libgeneric.a(ctype.o)
 .vfp11_veneer  0x57e296dc        0x0 lib_generic/libgeneric.a(div64.o)
 .vfp11_veneer  0x57e296dc        0x0 lib_generic/libgeneric.a(time.o)
 .vfp11_veneer  0x57e296dc        0x0 cpu/arm1176/s3c64xx/libs3c64xx.a(speed.o)
 .vfp11_veneer  0x57e296dc        0x0 cpu/arm1176/s3c64xx/libs3c64xx.a(timer.o)
 .vfp11_veneer  0x57e296dc        0x0 lib_arm/libarm.a(interrupts.o)
 .vfp11_veneer  0x57e296dc        0x0 lib_arm/libarm.a(reset.o)
 .vfp11_veneer  0x57e296dc        0x0 net/libnet.a(eth.o)
 .vfp11_veneer  0x57e296dc        0x0 net/libnet.a(net.o)
 .vfp11_veneer  0x57e296dc        0x0 net/libnet.a(nfs.o)
 .vfp11_veneer  0x57e296dc        0x0 net/libnet.a(rarp.o)
 .vfp11_veneer  0x57e296dc        0x0 net/libnet.a(tftp.o)
 .vfp11_veneer  0x57e296dc        0x0 net/libnet.a(bootp.o)
 .vfp11_veneer  0x57e296dc        0x0 drivers/mtd/libmtd.a(cfi_flash.o)
 .vfp11_veneer  0x57e296dc        0x0 drivers/mtd/libmtd.a(jedec_flash.o)
 .vfp11_veneer  0x57e296dc        0x0 drivers/mtd/nand/libnand.a(nand.o)
 .vfp11_veneer  0x57e296dc        0x0 drivers/mtd/nand/libnand.a(nand_base.o)
 .vfp11_veneer  0x57e296dc        0x0 drivers/mtd/nand/libnand.a(nand_bbt.o)
 .vfp11_veneer  0x57e296dc        0x0 drivers/mtd/nand/libnand.a(nand_ecc.o)
 .vfp11_veneer  0x57e296dc        0x0 drivers/mtd/nand/libnand.a(nand_ids.o)
 .vfp11_veneer  0x57e296dc        0x0 drivers/mtd/nand/libnand.a(s3c64xx.o)
 .vfp11_veneer  0x57e296dc        0x0 drivers/net/libnet.a(dm9000x.o)
 .vfp11_veneer  0x57e296dc        0x0 drivers/serial/libserial.a(s3c64xx.o)
 .vfp11_veneer  0x57e296dc        0x0 common/libcommon.a(cmd_bdinfo.o)
 .vfp11_veneer  0x57e296dc        0x0 common/libcommon.a(cmd_boot.o)
 .vfp11_veneer  0x57e296dc        0x0 common/libcommon.a(cmd_bootm.o)
 .vfp11_veneer  0x57e296dc        0x0 common/libcommon.a(cmd_bootzImage.o)
 .vfp11_veneer  0x57e296dc        0x0 common/libcommon.a(cmd_cache.o)
 .vfp11_veneer  0x57e296dc        0x0 common/libcommon.a(cmd_console.o)
 .vfp11_veneer  0x57e296dc        0x0 common/libcommon.a(cmd_echo.o)
 .vfp11_veneer  0x57e296dc        0x0 common/libcommon.a(cmd_elf.o)
 .vfp11_veneer  0x57e296dc        0x0 common/libcommon.a(cmd_exit.o)
 .vfp11_veneer  0x57e296dc        0x0 common/libcommon.a(cmd_ext2.o)
 .vfp11_veneer  0x57e296dc        0x0 common/libcommon.a(cmd_fat.o)
 .vfp11_veneer  0x57e296dc        0x0 common/libcommon.a(cmd_flash.o)
 .vfp11_veneer  0x57e296dc        0x0 common/libcommon.a(cmd_help.o)
 .vfp11_veneer  0x57e296dc        0x0 common/libcommon.a(cmd_itest.o)
 .vfp11_veneer  0x57e296dc        0x0 common/libcommon.a(cmd_load.o)
 .vfp11_veneer  0x57e296dc        0x0 common/libcommon.a(cmd_mem.o)
 .vfp11_veneer  0x57e296dc        0x0 common/libcommon.a(cmd_misc.o)
 .vfp11_veneer  0x57e296dc        0x0 common/libcommon.a(cmd_nand.o)
 .vfp11_veneer  0x57e296dc        0x0 common/libcommon.a(cmd_net.o)
 .vfp11_veneer  0x57e296dc        0x0 common/libcommon.a(cmd_nvedit.o)
 .vfp11_veneer  0x57e296dc        0x0 common/libcommon.a(cmd_reginfo.o)
 .vfp11_veneer  0x57e296dc        0x0 common/libcommon.a(cmd_source.o)
 .vfp11_veneer  0x57e296dc        0x0 common/libcommon.a(cmd_test.o)
 .vfp11_veneer  0x57e296dc        0x0 common/libcommon.a(cmd_usb.o)
 .vfp11_veneer  0x57e296dc        0x0 common/libcommon.a(cmd_usbd.o)
 .vfp11_veneer  0x57e296dc        0x0 common/libcommon.a(cmd_version.o)
 .vfp11_veneer  0x57e296dc        0x0 common/libcommon.a(cmd_ximg.o)
 .vfp11_veneer  0x57e296dc        0x0 common/libcommon.a(command.o)
 .vfp11_veneer  0x57e296dc        0x0 common/libcommon.a(console.o)
 .vfp11_veneer  0x57e296dc        0x0 common/libcommon.a(dlmalloc.o)
 .vfp11_veneer  0x57e296dc        0x0 common/libcommon.a(env_common.o)
 .vfp11_veneer  0x57e296dc        0x0 common/libcommon.a(env_nand.o)
 .vfp11_veneer  0x57e296dc        0x0 common/libcommon.a(exports.o)
 .vfp11_veneer  0x57e296dc        0x0 common/libcommon.a(flash.o)
 .vfp11_veneer  0x57e296dc        0x0 common/libcommon.a(hush.o)
 .vfp11_veneer  0x57e296dc        0x0 common/libcommon.a(image.o)
 .vfp11_veneer  0x57e296dc        0x0 common/libcommon.a(main.o)
 .vfp11_veneer  0x57e296dc        0x0 common/libcommon.a(s_record.o)
 .vfp11_veneer  0x57e296dc        0x0 common/libcommon.a(stdio.o)
 .vfp11_veneer  0x57e296dc        0x0 common/libcommon.a(usb.o)
 .vfp11_veneer  0x57e296dc        0x0 common/libcommon.a(usb_storage.o)
 .vfp11_veneer  0x57e296dc        0x0 common/libcommon.a(xyzModem.o)
 .vfp11_veneer  0x57e296dc        0x0 board/samsung/smdk6410/libsmdk6410.a(smdk6410.o)
 .vfp11_veneer  0x57e296dc        0x0 lib_generic/libgeneric.a(crc16.o)
 .vfp11_veneer  0x57e296dc        0x0 lib_generic/libgeneric.a(crc32.o)
 .vfp11_veneer  0x57e296dc        0x0 lib_generic/libgeneric.a(gunzip.o)
 .vfp11_veneer  0x57e296dc        0x0 lib_generic/libgeneric.a(zlib.o)
 .vfp11_veneer  0x57e296dc        0x0 cpu/arm1176/s3c64xx/libs3c64xx.a(reset.o)
 .vfp11_veneer  0x57e296dc        0x0 lib_arm/libarm.a(bootm.o)
 .vfp11_veneer  0x57e296dc        0x0 lib_arm/libarm.a(cache.o)
 .vfp11_veneer  0x57e296dc        0x0 lib_arm/libarm.a(cache-cp15.o)
 .vfp11_veneer  0x57e296dc        0x0 fs/fat/libfat.a(fat.o)
 .vfp11_veneer  0x57e296dc        0x0 fs/ext2/libext2fs.a(ext2fs.o)
 .vfp11_veneer  0x57e296dc        0x0 fs/ext2/libext2fs.a(dev.o)
 .vfp11_veneer  0x57e296dc        0x0 disk/libdisk.a(part.o)
 .vfp11_veneer  0x57e296dc        0x0 disk/libdisk.a(part_dos.o)
 .vfp11_veneer  0x57e296dc        0x0 drivers/mtd/nand/libnand.a(nand_util.o)
 .vfp11_veneer  0x57e296dc        0x0 drivers/usb/host/libusb_host.a(ohci-hcd.o)
 .vfp11_veneer  0x57e296dc        0x0 drivers/usb/host/libusb_host.a(s3c64xx-hcd.o)
 .vfp11_veneer  0x57e296dc        0x0 cpu/arm1176/libarm1176.a(cpu.o)
 .vfp11_veneer  0x57e296dc        0x0 /home/linx/Git/uboot2010/lib_arm/eabi_compat.o
 .vfp11_veneer  0x57e296dc        0x0 /usr/local/arm/4.3.2/bin/../lib/gcc/arm-none-linux-gnueabi/4.3.2/armv4t/libgcc.a(_udivsi3.o)
 .vfp11_veneer  0x57e296dc        0x0 /usr/local/arm/4.3.2/bin/../lib/gcc/arm-none-linux-gnueabi/4.3.2/armv4t/libgcc.a(_divsi3.o)
 .vfp11_veneer  0x57e296dc        0x0 /usr/local/arm/4.3.2/bin/../lib/gcc/arm-none-linux-gnueabi/4.3.2/armv4t/libgcc.a(_lshrdi3.o)
 .vfp11_veneer  0x57e296dc        0x0 /usr/local/arm/4.3.2/bin/../lib/gcc/arm-none-linux-gnueabi/4.3.2/armv4t/libgcc.a(_ashrdi3.o)
 .vfp11_veneer  0x57e296dc        0x0 /usr/local/arm/4.3.2/bin/../lib/gcc/arm-none-linux-gnueabi/4.3.2/armv4t/libgcc.a(_ashldi3.o)
 .vfp11_veneer  0x57e296dc        0x0 /usr/local/arm/4.3.2/bin/../lib/gcc/arm-none-linux-gnueabi/4.3.2/armv4t/libgcc.a(_dvmd_lnx.o)

.janus_2cc_veneer
                0x57e296dc        0x0
 .janus_2cc_veneer
                0x57e296dc        0x0 cpu/arm1176/start.o
 .janus_2cc_veneer
                0x57e296dc        0x0 cpu/arm1176/s3c64xx/cpu_init.o
 .janus_2cc_veneer
                0x57e296dc        0x0 board/samsung/smdk6410/lowlevel_init.o
 .janus_2cc_veneer
                0x57e296dc        0x0 cpu/arm1176/nand_cp.o
 .janus_2cc_veneer
                0x57e296dc        0x0 lib_arm/board.o
 .janus_2cc_veneer
                0x57e296dc        0x0 lib_generic/libgeneric.a(display_options.o)
 .janus_2cc_veneer
                0x57e296dc        0x0 lib_generic/libgeneric.a(net_utils.o)
 .janus_2cc_veneer
                0x57e296dc        0x0 lib_generic/libgeneric.a(string.o)
 .janus_2cc_veneer
                0x57e296dc        0x0 lib_generic/libgeneric.a(vsprintf.o)
 .janus_2cc_veneer
                0x57e296dc        0x0 lib_generic/libgeneric.a(ctype.o)
 .janus_2cc_veneer
                0x57e296dc        0x0 lib_generic/libgeneric.a(div64.o)
 .janus_2cc_veneer
                0x57e296dc        0x0 lib_generic/libgeneric.a(time.o)
 .janus_2cc_veneer
                0x57e296dc        0x0 cpu/arm1176/s3c64xx/libs3c64xx.a(speed.o)
 .janus_2cc_veneer
                0x57e296dc        0x0 cpu/arm1176/s3c64xx/libs3c64xx.a(timer.o)
 .janus_2cc_veneer
                0x57e296dc        0x0 lib_arm/libarm.a(interrupts.o)
 .janus_2cc_veneer
                0x57e296dc        0x0 lib_arm/libarm.a(reset.o)
 .janus_2cc_veneer
                0x57e296dc        0x0 net/libnet.a(eth.o)
 .janus_2cc_veneer
                0x57e296dc        0x0 net/libnet.a(net.o)
 .janus_2cc_veneer
                0x57e296dc        0x0 net/libnet.a(nfs.o)
 .janus_2cc_veneer
                0x57e296dc        0x0 net/libnet.a(rarp.o)
 .janus_2cc_veneer
                0x57e296dc        0x0 net/libnet.a(tftp.o)
 .janus_2cc_veneer
                0x57e296dc        0x0 net/libnet.a(bootp.o)
 .janus_2cc_veneer
                0x57e296dc        0x0 drivers/mtd/libmtd.a(cfi_flash.o)
 .janus_2cc_veneer
                0x57e296dc        0x0 drivers/mtd/libmtd.a(jedec_flash.o)
 .janus_2cc_veneer
                0x57e296dc        0x0 drivers/mtd/nand/libnand.a(nand.o)
 .janus_2cc_veneer
                0x57e296dc        0x0 drivers/mtd/nand/libnand.a(nand_base.o)
 .janus_2cc_veneer
                0x57e296dc        0x0 drivers/mtd/nand/libnand.a(nand_bbt.o)
 .janus_2cc_veneer
                0x57e296dc        0x0 drivers/mtd/nand/libnand.a(nand_ecc.o)
 .janus_2cc_veneer
                0x57e296dc        0x0 drivers/mtd/nand/libnand.a(nand_ids.o)
 .janus_2cc_veneer
                0x57e296dc        0x0 drivers/mtd/nand/libnand.a(s3c64xx.o)
 .janus_2cc_veneer
                0x57e296dc        0x0 drivers/net/libnet.a(dm9000x.o)
 .janus_2cc_veneer
                0x57e296dc        0x0 drivers/serial/libserial.a(s3c64xx.o)
 .janus_2cc_veneer
                0x57e296dc        0x0 common/libcommon.a(cmd_bdinfo.o)
 .janus_2cc_veneer
                0x57e296dc        0x0 common/libcommon.a(cmd_boot.o)
 .janus_2cc_veneer
                0x57e296dc        0x0 common/libcommon.a(cmd_bootm.o)
 .janus_2cc_veneer
                0x57e296dc        0x0 common/libcommon.a(cmd_bootzImage.o)
 .janus_2cc_veneer
                0x57e296dc        0x0 common/libcommon.a(cmd_cache.o)
 .janus_2cc_veneer
                0x57e296dc        0x0 common/libcommon.a(cmd_console.o)
 .janus_2cc_veneer
                0x57e296dc        0x0 common/libcommon.a(cmd_echo.o)
 .janus_2cc_veneer
                0x57e296dc        0x0 common/libcommon.a(cmd_elf.o)
 .janus_2cc_veneer
                0x57e296dc        0x0 common/libcommon.a(cmd_exit.o)
 .janus_2cc_veneer
                0x57e296dc        0x0 common/libcommon.a(cmd_ext2.o)
 .janus_2cc_veneer
                0x57e296dc        0x0 common/libcommon.a(cmd_fat.o)
 .janus_2cc_veneer
                0x57e296dc        0x0 common/libcommon.a(cmd_flash.o)
 .janus_2cc_veneer
                0x57e296dc        0x0 common/libcommon.a(cmd_help.o)
 .janus_2cc_veneer
                0x57e296dc        0x0 common/libcommon.a(cmd_itest.o)
 .janus_2cc_veneer
                0x57e296dc        0x0 common/libcommon.a(cmd_load.o)
 .janus_2cc_veneer
                0x57e296dc        0x0 common/libcommon.a(cmd_mem.o)
 .janus_2cc_veneer
                0x57e296dc        0x0 common/libcommon.a(cmd_misc.o)
 .janus_2cc_veneer
                0x57e296dc        0x0 common/libcommon.a(cmd_nand.o)
 .janus_2cc_veneer
                0x57e296dc        0x0 common/libcommon.a(cmd_net.o)
 .janus_2cc_veneer
                0x57e296dc        0x0 common/libcommon.a(cmd_nvedit.o)
 .janus_2cc_veneer
                0x57e296dc        0x0 common/libcommon.a(cmd_reginfo.o)
 .janus_2cc_veneer
                0x57e296dc        0x0 common/libcommon.a(cmd_source.o)
 .janus_2cc_veneer
                0x57e296dc        0x0 common/libcommon.a(cmd_test.o)
 .janus_2cc_veneer
                0x57e296dc        0x0 common/libcommon.a(cmd_usb.o)
 .janus_2cc_veneer
                0x57e296dc        0x0 common/libcommon.a(cmd_usbd.o)
 .janus_2cc_veneer
                0x57e296dc        0x0 common/libcommon.a(cmd_version.o)
 .janus_2cc_veneer
                0x57e296dc        0x0 common/libcommon.a(cmd_ximg.o)
 .janus_2cc_veneer
                0x57e296dc        0x0 common/libcommon.a(command.o)
 .janus_2cc_veneer
                0x57e296dc        0x0 common/libcommon.a(console.o)
 .janus_2cc_veneer
                0x57e296dc        0x0 common/libcommon.a(dlmalloc.o)
 .janus_2cc_veneer
                0x57e296dc        0x0 common/libcommon.a(env_common.o)
 .janus_2cc_veneer
                0x57e296dc        0x0 common/libcommon.a(env_nand.o)
 .janus_2cc_veneer
                0x57e296dc        0x0 common/libcommon.a(exports.o)
 .janus_2cc_veneer
                0x57e296dc        0x0 common/libcommon.a(flash.o)
 .janus_2cc_veneer
                0x57e296dc        0x0 common/libcommon.a(hush.o)
 .janus_2cc_veneer
                0x57e296dc        0x0 common/libcommon.a(image.o)
 .janus_2cc_veneer
                0x57e296dc        0x0 common/libcommon.a(main.o)
 .janus_2cc_veneer
                0x57e296dc        0x0 common/libcommon.a(s_record.o)
 .janus_2cc_veneer
                0x57e296dc        0x0 common/libcommon.a(stdio.o)
 .janus_2cc_veneer
                0x57e296dc        0x0 common/libcommon.a(usb.o)
 .janus_2cc_veneer
                0x57e296dc        0x0 common/libcommon.a(usb_storage.o)
 .janus_2cc_veneer
                0x57e296dc        0x0 common/libcommon.a(xyzModem.o)
 .janus_2cc_veneer
                0x57e296dc        0x0 board/samsung/smdk6410/libsmdk6410.a(smdk6410.o)
 .janus_2cc_veneer
                0x57e296dc        0x0 lib_generic/libgeneric.a(crc16.o)
 .janus_2cc_veneer
                0x57e296dc        0x0 lib_generic/libgeneric.a(crc32.o)
 .janus_2cc_veneer
                0x57e296dc        0x0 lib_generic/libgeneric.a(gunzip.o)
 .janus_2cc_veneer
                0x57e296dc        0x0 lib_generic/libgeneric.a(zlib.o)
 .janus_2cc_veneer
                0x57e296dc        0x0 cpu/arm1176/s3c64xx/libs3c64xx.a(reset.o)
 .janus_2cc_veneer
                0x57e296dc        0x0 lib_arm/libarm.a(bootm.o)
 .janus_2cc_veneer
                0x57e296dc        0x0 lib_arm/libarm.a(cache.o)
 .janus_2cc_veneer
                0x57e296dc        0x0 lib_arm/libarm.a(cache-cp15.o)
 .janus_2cc_veneer
                0x57e296dc        0x0 fs/fat/libfat.a(fat.o)
 .janus_2cc_veneer
                0x57e296dc        0x0 fs/ext2/libext2fs.a(ext2fs.o)
 .janus_2cc_veneer
                0x57e296dc        0x0 fs/ext2/libext2fs.a(dev.o)
 .janus_2cc_veneer
                0x57e296dc        0x0 disk/libdisk.a(part.o)
 .janus_2cc_veneer
                0x57e296dc        0x0 disk/libdisk.a(part_dos.o)
 .janus_2cc_veneer
                0x57e296dc        0x0 drivers/mtd/nand/libnand.a(nand_util.o)
 .janus_2cc_veneer
                0x57e296dc        0x0 drivers/usb/host/libusb_host.a(ohci-hcd.o)
 .janus_2cc_veneer
                0x57e296dc        0x0 drivers/usb/host/libusb_host.a(s3c64xx-hcd.o)
 .janus_2cc_veneer
                0x57e296dc        0x0 cpu/arm1176/libarm1176.a(cpu.o)
 .janus_2cc_veneer
                0x57e296dc        0x0 /home/linx/Git/uboot2010/lib_arm/eabi_compat.o
 .janus_2cc_veneer
                0x57e296dc        0x0 /usr/local/arm/4.3.2/bin/../lib/gcc/arm-none-linux-gnueabi/4.3.2/armv4t/libgcc.a(_udivsi3.o)
 .janus_2cc_veneer
                0x57e296dc        0x0 /usr/local/arm/4.3.2/bin/../lib/gcc/arm-none-linux-gnueabi/4.3.2/armv4t/libgcc.a(_divsi3.o)
 .janus_2cc_veneer
                0x57e296dc        0x0 /usr/local/arm/4.3.2/bin/../lib/gcc/arm-none-linux-gnueabi/4.3.2/armv4t/libgcc.a(_lshrdi3.o)
 .janus_2cc_veneer
                0x57e296dc        0x0 /usr/local/arm/4.3.2/bin/../lib/gcc/arm-none-linux-gnueabi/4.3.2/armv4t/libgcc.a(_ashrdi3.o)
 .janus_2cc_veneer
                0x57e296dc        0x0 /usr/local/arm/4.3.2/bin/../lib/gcc/arm-none-linux-gnueabi/4.3.2/armv4t/libgcc.a(_ashldi3.o)
 .janus_2cc_veneer
                0x57e296dc        0x0 /usr/local/arm/4.3.2/bin/../lib/gcc/arm-none-linux-gnueabi/4.3.2/armv4t/libgcc.a(_dvmd_lnx.o)

.v4_bx          0x57e296dc        0x0
 .v4_bx         0x57e296dc        0x0 cpu/arm1176/start.o
 .v4_bx         0x57e296dc        0x0 cpu/arm1176/s3c64xx/cpu_init.o
 .v4_bx         0x57e296dc        0x0 board/samsung/smdk6410/lowlevel_init.o
 .v4_bx         0x57e296dc        0x0 cpu/arm1176/nand_cp.o
 .v4_bx         0x57e296dc        0x0 lib_arm/board.o
 .v4_bx         0x57e296dc        0x0 lib_generic/libgeneric.a(display_options.o)
 .v4_bx         0x57e296dc        0x0 lib_generic/libgeneric.a(net_utils.o)
 .v4_bx         0x57e296dc        0x0 lib_generic/libgeneric.a(string.o)
 .v4_bx         0x57e296dc        0x0 lib_generic/libgeneric.a(vsprintf.o)
 .v4_bx         0x57e296dc        0x0 lib_generic/libgeneric.a(ctype.o)
 .v4_bx         0x57e296dc        0x0 lib_generic/libgeneric.a(div64.o)
 .v4_bx         0x57e296dc        0x0 lib_generic/libgeneric.a(time.o)
 .v4_bx         0x57e296dc        0x0 cpu/arm1176/s3c64xx/libs3c64xx.a(speed.o)
 .v4_bx         0x57e296dc        0x0 cpu/arm1176/s3c64xx/libs3c64xx.a(timer.o)
 .v4_bx         0x57e296dc        0x0 lib_arm/libarm.a(interrupts.o)
 .v4_bx         0x57e296dc        0x0 lib_arm/libarm.a(reset.o)
 .v4_bx         0x57e296dc        0x0 net/libnet.a(eth.o)
 .v4_bx         0x57e296dc        0x0 net/libnet.a(net.o)
 .v4_bx         0x57e296dc        0x0 net/libnet.a(nfs.o)
 .v4_bx         0x57e296dc        0x0 net/libnet.a(rarp.o)
 .v4_bx         0x57e296dc        0x0 net/libnet.a(tftp.o)
 .v4_bx         0x57e296dc        0x0 net/libnet.a(bootp.o)
 .v4_bx         0x57e296dc        0x0 drivers/mtd/libmtd.a(cfi_flash.o)
 .v4_bx         0x57e296dc        0x0 drivers/mtd/libmtd.a(jedec_flash.o)
 .v4_bx         0x57e296dc        0x0 drivers/mtd/nand/libnand.a(nand.o)
 .v4_bx         0x57e296dc        0x0 drivers/mtd/nand/libnand.a(nand_base.o)
 .v4_bx         0x57e296dc        0x0 drivers/mtd/nand/libnand.a(nand_bbt.o)
 .v4_bx         0x57e296dc        0x0 drivers/mtd/nand/libnand.a(nand_ecc.o)
 .v4_bx         0x57e296dc        0x0 drivers/mtd/nand/libnand.a(nand_ids.o)
 .v4_bx         0x57e296dc        0x0 drivers/mtd/nand/libnand.a(s3c64xx.o)
 .v4_bx         0x57e296dc        0x0 drivers/net/libnet.a(dm9000x.o)
 .v4_bx         0x57e296dc        0x0 drivers/serial/libserial.a(s3c64xx.o)
 .v4_bx         0x57e296dc        0x0 common/libcommon.a(cmd_bdinfo.o)
 .v4_bx         0x57e296dc        0x0 common/libcommon.a(cmd_boot.o)
 .v4_bx         0x57e296dc        0x0 common/libcommon.a(cmd_bootm.o)
 .v4_bx         0x57e296dc        0x0 common/libcommon.a(cmd_bootzImage.o)
 .v4_bx         0x57e296dc        0x0 common/libcommon.a(cmd_cache.o)
 .v4_bx         0x57e296dc        0x0 common/libcommon.a(cmd_console.o)
 .v4_bx         0x57e296dc        0x0 common/libcommon.a(cmd_echo.o)
 .v4_bx         0x57e296dc        0x0 common/libcommon.a(cmd_elf.o)
 .v4_bx         0x57e296dc        0x0 common/libcommon.a(cmd_exit.o)
 .v4_bx         0x57e296dc        0x0 common/libcommon.a(cmd_ext2.o)
 .v4_bx         0x57e296dc        0x0 common/libcommon.a(cmd_fat.o)
 .v4_bx         0x57e296dc        0x0 common/libcommon.a(cmd_flash.o)
 .v4_bx         0x57e296dc        0x0 common/libcommon.a(cmd_help.o)
 .v4_bx         0x57e296dc        0x0 common/libcommon.a(cmd_itest.o)
 .v4_bx         0x57e296dc        0x0 common/libcommon.a(cmd_load.o)
 .v4_bx         0x57e296dc        0x0 common/libcommon.a(cmd_mem.o)
 .v4_bx         0x57e296dc        0x0 common/libcommon.a(cmd_misc.o)
 .v4_bx         0x57e296dc        0x0 common/libcommon.a(cmd_nand.o)
 .v4_bx         0x57e296dc        0x0 common/libcommon.a(cmd_net.o)
 .v4_bx         0x57e296dc        0x0 common/libcommon.a(cmd_nvedit.o)
 .v4_bx         0x57e296dc        0x0 common/libcommon.a(cmd_reginfo.o)
 .v4_bx         0x57e296dc        0x0 common/libcommon.a(cmd_source.o)
 .v4_bx         0x57e296dc        0x0 common/libcommon.a(cmd_test.o)
 .v4_bx         0x57e296dc        0x0 common/libcommon.a(cmd_usb.o)
 .v4_bx         0x57e296dc        0x0 common/libcommon.a(cmd_usbd.o)
 .v4_bx         0x57e296dc        0x0 common/libcommon.a(cmd_version.o)
 .v4_bx         0x57e296dc        0x0 common/libcommon.a(cmd_ximg.o)
 .v4_bx         0x57e296dc        0x0 common/libcommon.a(command.o)
 .v4_bx         0x57e296dc        0x0 common/libcommon.a(console.o)
 .v4_bx         0x57e296dc        0x0 common/libcommon.a(dlmalloc.o)
 .v4_bx         0x57e296dc        0x0 common/libcommon.a(env_common.o)
 .v4_bx         0x57e296dc        0x0 common/libcommon.a(env_nand.o)
 .v4_bx         0x57e296dc        0x0 common/libcommon.a(exports.o)
 .v4_bx         0x57e296dc        0x0 common/libcommon.a(flash.o)
 .v4_bx         0x57e296dc        0x0 common/libcommon.a(hush.o)
 .v4_bx         0x57e296dc        0x0 common/libcommon.a(image.o)
 .v4_bx         0x57e296dc        0x0 common/libcommon.a(main.o)
 .v4_bx         0x57e296dc        0x0 common/libcommon.a(s_record.o)
 .v4_bx         0x57e296dc        0x0 common/libcommon.a(stdio.o)
 .v4_bx         0x57e296dc        0x0 common/libcommon.a(usb.o)
 .v4_bx         0x57e296dc        0x0 common/libcommon.a(usb_storage.o)
 .v4_bx         0x57e296dc        0x0 common/libcommon.a(xyzModem.o)
 .v4_bx         0x57e296dc        0x0 board/samsung/smdk6410/libsmdk6410.a(smdk6410.o)
 .v4_bx         0x57e296dc        0x0 lib_generic/libgeneric.a(crc16.o)
 .v4_bx         0x57e296dc        0x0 lib_generic/libgeneric.a(crc32.o)
 .v4_bx         0x57e296dc        0x0 lib_generic/libgeneric.a(gunzip.o)
 .v4_bx         0x57e296dc        0x0 lib_generic/libgeneric.a(zlib.o)
 .v4_bx         0x57e296dc        0x0 cpu/arm1176/s3c64xx/libs3c64xx.a(reset.o)
 .v4_bx         0x57e296dc        0x0 lib_arm/libarm.a(bootm.o)
 .v4_bx         0x57e296dc        0x0 lib_arm/libarm.a(cache.o)
 .v4_bx         0x57e296dc        0x0 lib_arm/libarm.a(cache-cp15.o)
 .v4_bx         0x57e296dc        0x0 fs/fat/libfat.a(fat.o)
 .v4_bx         0x57e296dc        0x0 fs/ext2/libext2fs.a(ext2fs.o)
 .v4_bx         0x57e296dc        0x0 fs/ext2/libext2fs.a(dev.o)
 .v4_bx         0x57e296dc        0x0 disk/libdisk.a(part.o)
 .v4_bx         0x57e296dc        0x0 disk/libdisk.a(part_dos.o)
 .v4_bx         0x57e296dc        0x0 drivers/mtd/nand/libnand.a(nand_util.o)
 .v4_bx         0x57e296dc        0x0 drivers/usb/host/libusb_host.a(ohci-hcd.o)
 .v4_bx         0x57e296dc        0x0 drivers/usb/host/libusb_host.a(s3c64xx-hcd.o)
 .v4_bx         0x57e296dc        0x0 cpu/arm1176/libarm1176.a(cpu.o)
 .v4_bx         0x57e296dc        0x0 /home/linx/Git/uboot2010/lib_arm/eabi_compat.o
 .v4_bx         0x57e296dc        0x0 /usr/local/arm/4.3.2/bin/../lib/gcc/arm-none-linux-gnueabi/4.3.2/armv4t/libgcc.a(_udivsi3.o)
 .v4_bx         0x57e296dc        0x0 /usr/local/arm/4.3.2/bin/../lib/gcc/arm-none-linux-gnueabi/4.3.2/armv4t/libgcc.a(_divsi3.o)
 .v4_bx         0x57e296dc        0x0 /usr/local/arm/4.3.2/bin/../lib/gcc/arm-none-linux-gnueabi/4.3.2/armv4t/libgcc.a(_lshrdi3.o)
 .v4_bx         0x57e296dc        0x0 /usr/local/arm/4.3.2/bin/../lib/gcc/arm-none-linux-gnueabi/4.3.2/armv4t/libgcc.a(_ashrdi3.o)
 .v4_bx         0x57e296dc        0x0 /usr/local/arm/4.3.2/bin/../lib/gcc/arm-none-linux-gnueabi/4.3.2/armv4t/libgcc.a(_ashldi3.o)
 .v4_bx         0x57e296dc        0x0 /usr/local/arm/4.3.2/bin/../lib/gcc/arm-none-linux-gnueabi/4.3.2/armv4t/libgcc.a(_dvmd_lnx.o)
                0x57e296dc                . = ALIGN (0x4)

.rodata         0x57e296e0     0x8e03
 *(SORT(.rodata*))
 .rodata        0x57e296e0       0x60 drivers/mtd/nand/libnand.a(nand_base.o)
 .rodata        0x57e29740       0x80 lib_arm/libarm.a(interrupts.o)
 .rodata        0x57e297c0       0x10 drivers/mtd/libmtd.a(cfi_flash.o)
 .rodata        0x57e297d0       0x98 drivers/mtd/libmtd.a(jedec_flash.o)
 .rodata        0x57e29868       0x40 drivers/serial/libserial.a(s3c64xx.o)
 .rodata        0x57e298a8       0x4c common/libcommon.a(cmd_bootm.o)
 .rodata        0x57e298f4       0x14 common/libcommon.a(cmd_nvedit.o)
 .rodata        0x57e29908      0x400 lib_generic/libgeneric.a(crc32.o)
 .rodata        0x57e29d08      0x9cc lib_generic/libgeneric.a(zlib.o)
                0x57e2a6ac                z_errmsg
 .rodata        0x57e2a6d4       0x10 disk/libdisk.a(part.o)
 .rodata        0x57e2a6e4       0x80 drivers/usb/host/libusb_host.a(ohci-hcd.o)
 .rodata        0x57e2a764      0x200 lib_generic/libgeneric.a(crc16.o)
 .rodata        0x57e2a964       0x3b lib_arm/board.o
                0x57e2a964                version_string
 .rodata        0x57e2a99f       0x21 lib_generic/libgeneric.a(vsprintf.o)
                0x57e2a99f                hex_asc
 .rodata        0x57e2a9c0        0x7 net/libnet.a(eth.o)
 .rodata        0x57e2a9c7        0x7 net/libnet.a(net.o)
 .rodata        0x57e2a9ce        0x5 drivers/mtd/nand/libnand.a(nand.o)
 .rodata        0x57e2a9d3      0x100 drivers/mtd/nand/libnand.a(nand_ecc.o)
 .rodata        0x57e2aad3       0xa2 common/libcommon.a(cmd_usbd.o)
                0x57e2ab2f                string_desc0
                0x57e2ab05                config_high_total
                0x57e2aadc                config_full_total
                0x57e2aafc                config_high
                0x57e2ab33                string_desc1
                0x57e2ab25                qualifier_desc
                0x57e2aad3                config_full
                0x57e2ab49                string_desc2
 .rodata.str1.1
                0x57e2ab75       0x73 lib_arm/board.o
                                 0x75 (size before relaxing)
 .rodata.str1.1
                0x57e2abe8       0x2a lib_generic/libgeneric.a(display_options.o)
                                 0x36 (size before relaxing)
 .rodata.str1.1
                0x57e2ac12        0xe lib_generic/libgeneric.a(vsprintf.o)
 .rodata.str1.1
                0x57e2ac20       0x6d cpu/arm1176/s3c64xx/libs3c64xx.a(speed.o)
 .rodata.str1.1
                0x57e2ac8d      0x264 lib_arm/libarm.a(interrupts.o)
                                0x27b (size before relaxing)
 .rodata.str1.1
                0x57e2aef1        0xf lib_arm/libarm.a(reset.o)
 .rodata.str1.1
                0x57e2af00       0xad net/libnet.a(eth.o)
                                 0xc7 (size before relaxing)
 .rodata.str1.1
                0x57e2afad      0x20c net/libnet.a(net.o)
                                0x217 (size before relaxing)
 .rodata.str1.1
                0x57e2b1b9      0x193 net/libnet.a(nfs.o)
                                0x1a9 (size before relaxing)
 .rodata.str1.1
                0x57e2b34c       0x20 net/libnet.a(rarp.o)
                                 0x47 (size before relaxing)
 .rodata.str1.1
                0x57e2b36c      0x11a net/libnet.a(tftp.o)
                                0x1f9 (size before relaxing)
 .rodata.str1.1
                0x57e2b486       0x70 net/libnet.a(bootp.o)
                                 0xad (size before relaxing)
 .rodata.str1.1
                0x57e2b4f6      0x37a drivers/mtd/libmtd.a(cfi_flash.o)
                                0x37f (size before relaxing)
 .rodata.str1.1
                0x57e2b870       0x20 drivers/mtd/libmtd.a(jedec_flash.o)
                                 0x3f (size before relaxing)
 .rodata.str1.1
                0x57e2b890        0x8 drivers/mtd/nand/libnand.a(nand.o)
 .rodata.str1.1
                0x57e2b898      0x2e3 drivers/mtd/nand/libnand.a(nand_base.o)
 .rodata.str1.1
                0x57e2bb7b      0x309 drivers/mtd/nand/libnand.a(nand_bbt.o)
 .rodata.str1.1
                0x57e2be84      0x31f drivers/mtd/nand/libnand.a(nand_ids.o)
                                0x335 (size before relaxing)
 .rodata.str1.1
                0x57e2c1a3       0x91 drivers/mtd/nand/libnand.a(s3c64xx.o)
 .rodata.str1.1
                0x57e2c234      0x1f8 drivers/net/libnet.a(dm9000x.o)
                                0x1fe (size before relaxing)
 .rodata.str1.1
                0x57e2c42c       0xaa common/libcommon.a(cmd_bdinfo.o)
                                 0xb3 (size before relaxing)
 .rodata.str1.1
                0x57e2c4d6       0xef common/libcommon.a(cmd_boot.o)
                                 0xf0 (size before relaxing)
 .rodata.str1.1
                0x57e2c5c5      0x867 common/libcommon.a(cmd_bootm.o)
                                0x8c8 (size before relaxing)
 .rodata.str1.1
                0x57e2ce2c       0x60 common/libcommon.a(cmd_bootzImage.o)
                                 0x69 (size before relaxing)
 .rodata.str1.1
                0x57e2ce8c       0xd9 common/libcommon.a(cmd_cache.o)
                                0x107 (size before relaxing)
 .rodata.str1.1
                0x57e2cf65       0x5c common/libcommon.a(cmd_console.o)
                                 0x61 (size before relaxing)
 .rodata.str1.1
                0x57e2cfc1       0x50 common/libcommon.a(cmd_echo.o)
                                 0x55 (size before relaxing)
 .rodata.str1.1
                0x57e2d011      0x278 common/libcommon.a(cmd_elf.o)
                                0x29a (size before relaxing)
 .rodata.str1.1
                0x57e2d289       0x11 common/libcommon.a(cmd_exit.o)
                                 0x12 (size before relaxing)
 .rodata.str1.1
                0x57e2d29a      0x2cd common/libcommon.a(cmd_ext2.o)
                                0x39a (size before relaxing)
 .rodata.str1.1
                0x57e2d567      0x2e1 common/libcommon.a(cmd_fat.o)
                                0x3a5 (size before relaxing)
 .rodata.str1.1
                0x57e2d848      0x6fe common/libcommon.a(cmd_flash.o)
                                0x730 (size before relaxing)
 .rodata.str1.1
                0x57e2df46       0x9a common/libcommon.a(cmd_help.o)
                                 0x9b (size before relaxing)
 .rodata.str1.1
                0x57e2dfe0       0xb3 common/libcommon.a(cmd_itest.o)
                                 0xb5 (size before relaxing)
 .rodata.str1.1
                0x57e2e093      0x336 common/libcommon.a(cmd_load.o)
                                0x353 (size before relaxing)
 .rodata.str1.1
                0x57e2e3c9      0x47f common/libcommon.a(cmd_mem.o)
                                0x4a9 (size before relaxing)
 .rodata.str1.1
                0x57e2e848       0x5f common/libcommon.a(cmd_misc.o)
 .rodata.str1.1
                0x57e2e8a7      0x71e common/libcommon.a(cmd_nand.o)
                                0x773 (size before relaxing)
 .rodata.str1.1
                0x57e2efc5      0x1ac common/libcommon.a(cmd_net.o)
                                0x1ee (size before relaxing)
 .rodata.str1.1
                0x57e2f171      0x33b common/libcommon.a(cmd_nvedit.o)
                                0x39b (size before relaxing)
 .rodata.str1.1
                0x57e2f4ac       0x23 common/libcommon.a(cmd_reginfo.o)
                                 0x24 (size before relaxing)
 .rodata.str1.1
                0x57e2f4cf      0x101 common/libcommon.a(cmd_source.o)
                                0x108 (size before relaxing)
 .rodata.str1.1
                0x57e2f5d0       0x6e common/libcommon.a(cmd_test.o)
                                 0x96 (size before relaxing)
 .rodata.str1.1
                0x57e2f63e      0x828 common/libcommon.a(cmd_usb.o)
                                0x969 (size before relaxing)
 .rodata.str1.1
                0x57e2fe66      0x1e3 common/libcommon.a(cmd_usbd.o)
                                0x1e8 (size before relaxing)
 .rodata.str1.1
                0x57e30049       0x16 common/libcommon.a(cmd_version.o)
                                 0x24 (size before relaxing)
 .rodata.str1.1
                0x57e3005f      0x17e common/libcommon.a(cmd_ximg.o)
                                0x22f (size before relaxing)
 .rodata.str1.1
                0x57e301dd       0x95 common/libcommon.a(command.o)
 .rodata.str1.1
                0x57e30272       0x70 common/libcommon.a(console.o)
                                 0x74 (size before relaxing)
 .rodata.str1.1
                0x57e302e2       0x33 common/libcommon.a(env_common.o)
 .rodata.str1.1
                0x57e30315       0x6e common/libcommon.a(env_nand.o)
                                 0x74 (size before relaxing)
 .rodata.str1.1
                0x57e30383      0x10c common/libcommon.a(flash.o)
 .rodata.str1.1
                0x57e3048f      0x243 common/libcommon.a(hush.o)
                                0x26e (size before relaxing)
 .rodata.str1.1
                0x57e306d2      0x455 common/libcommon.a(image.o)
                                0x4f0 (size before relaxing)
 .rodata.str1.1
                0x57e30b27       0x93 common/libcommon.a(main.o)
                                 0xf7 (size before relaxing)
 .rodata.str1.1
                0x57e30bba        0x7 common/libcommon.a(stdio.o)
                                 0x1b (size before relaxing)
 .rodata.str1.1
                0x57e30bc1      0x28b common/libcommon.a(usb.o)
 .rodata.str1.1
                0x57e30e4c      0x1ed common/libcommon.a(usb_storage.o)
                                0x1ff (size before relaxing)
 .rodata.str1.1
                0x57e31039       0xe3 common/libcommon.a(xyzModem.o)
                                 0xe5 (size before relaxing)
 .rodata.str1.1
                0x57e3111c       0x13 board/samsung/smdk6410/libsmdk6410.a(smdk6410.o)
 .rodata.str1.1
                0x57e3112f       0x85 lib_generic/libgeneric.a(gunzip.o)
 .rodata.str1.1
                0x57e311b4      0x21c lib_generic/libgeneric.a(zlib.o)
                                0x21d (size before relaxing)
 .rodata.str1.1
                0x57e313d0       0x42 lib_arm/libarm.a(bootm.o)
                                 0x4b (size before relaxing)
 .rodata.str1.1
                0x57e31412      0x15f fs/fat/libfat.a(fat.o)
                                0x16d (size before relaxing)
 .rodata.str1.1
                0x57e31571      0x1be fs/ext2/libext2fs.a(ext2fs.o)
 .rodata.str1.1
                0x57e3172f       0xdc fs/ext2/libext2fs.a(dev.o)
 .rodata.str1.1
                0x57e3180b      0x1af disk/libdisk.a(part.o)
                                0x1e0 (size before relaxing)
 .rodata.str1.1
                0x57e319ba       0xe5 disk/libdisk.a(part_dos.o)
                                 0xf1 (size before relaxing)
 .rodata.str1.1
                0x57e31a9f      0x24c drivers/mtd/nand/libnand.a(nand_util.o)
                                0x24e (size before relaxing)
 .rodata.str1.1
                0x57e31ceb      0x7dd drivers/usb/host/libusb_host.a(ohci-hcd.o)
 .rodata.str1.1
                0x57e324c8       0x1b /home/linx/Git/uboot2010/lib_arm/eabi_compat.o
                0x57e324e4                . = ALIGN (0x4)

.data           0x57e324e4     0x19db
 *(.data)
 .data          0x57e324e4        0x0 cpu/arm1176/start.o
 .data          0x57e324e4        0x0 cpu/arm1176/s3c64xx/cpu_init.o
 .data          0x57e324e4        0x0 board/samsung/smdk6410/lowlevel_init.o
 .data          0x57e324e4        0x0 cpu/arm1176/nand_cp.o
 .data          0x57e324e4       0x30 lib_arm/board.o
                0x57e324e4                init_sequence
 .data          0x57e32514        0x0 lib_generic/libgeneric.a(display_options.o)
 .data          0x57e32514        0x0 lib_generic/libgeneric.a(net_utils.o)
 .data          0x57e32514        0x0 lib_generic/libgeneric.a(string.o)
 .data          0x57e32514        0x0 lib_generic/libgeneric.a(vsprintf.o)
 .data          0x57e32514      0x100 lib_generic/libgeneric.a(ctype.o)
                0x57e32514                _ctype
 .data          0x57e32614        0x0 lib_generic/libgeneric.a(div64.o)
 .data          0x57e32614        0x0 lib_generic/libgeneric.a(time.o)
 .data          0x57e32614        0x0 cpu/arm1176/s3c64xx/libs3c64xx.a(speed.o)
 .data          0x57e32614        0x0 cpu/arm1176/s3c64xx/libs3c64xx.a(timer.o)
 .data          0x57e32614        0x0 lib_arm/libarm.a(interrupts.o)
 .data          0x57e32614        0x0 lib_arm/libarm.a(reset.o)
 .data          0x57e32614        0x0 net/libnet.a(eth.o)
 .data          0x57e32614        0xa net/libnet.a(net.o)
                0x57e32618                NetBcastAddr
                0x57e32616                NetOurNativeVLAN
                0x57e32614                NetOurVLAN
 *fill*         0x57e3261e        0x2 00
 .data          0x57e32620        0x4 net/libnet.a(nfs.o)
 .data          0x57e32624        0x0 net/libnet.a(rarp.o)
 .data          0x57e32624       0x10 net/libnet.a(tftp.o)
                0x57e32630                TftpRRQTimeoutMSecs
                0x57e32628                TftpRRQTimeoutCountMax
 .data          0x57e32634        0x0 net/libnet.a(bootp.o)
 .data          0x57e32634        0x4 drivers/mtd/libmtd.a(cfi_flash.o)
 .data          0x57e32638        0x0 drivers/mtd/libmtd.a(jedec_flash.o)
 .data          0x57e32638        0x4 drivers/mtd/nand/libnand.a(nand.o)
                0x57e32638                nand_curr_device
 .data          0x57e3263c      0x920 drivers/mtd/nand/libnand.a(nand_base.o)
 .data          0x57e32f5c      0x10c drivers/mtd/nand/libnand.a(nand_bbt.o)
 .data          0x57e33068        0x0 drivers/mtd/nand/libnand.a(nand_ecc.o)
 .data          0x57e33068      0x4a0 drivers/mtd/nand/libnand.a(nand_ids.o)
                0x57e334b8                nand_manuf_ids
                0x57e33068                nand_flash_ids
 .data          0x57e33508        0x8 drivers/mtd/nand/libnand.a(s3c64xx.o)
 .data          0x57e33510        0x0 drivers/net/libnet.a(dm9000x.o)
 .data          0x57e33510        0x0 drivers/serial/libserial.a(s3c64xx.o)
 .data          0x57e33510        0x0 common/libcommon.a(cmd_bdinfo.o)
 .data          0x57e33510        0x0 common/libcommon.a(cmd_boot.o)
 .data          0x57e33510       0x94 common/libcommon.a(cmd_bootm.o)
                0x57e33510                load_addr
                0x57e33514                cmd_bootm_sub
 .data          0x57e335a4        0x0 common/libcommon.a(cmd_bootzImage.o)
 .data          0x57e335a4        0x0 common/libcommon.a(cmd_cache.o)
 .data          0x57e335a4        0x0 common/libcommon.a(cmd_console.o)
 .data          0x57e335a4        0x0 common/libcommon.a(cmd_echo.o)
 .data          0x57e335a4        0x0 common/libcommon.a(cmd_elf.o)
 .data          0x57e335a4        0x0 common/libcommon.a(cmd_exit.o)
 .data          0x57e335a4        0x0 common/libcommon.a(cmd_ext2.o)
 .data          0x57e335a4        0x0 common/libcommon.a(cmd_fat.o)
 .data          0x57e335a4        0x0 common/libcommon.a(cmd_flash.o)
 .data          0x57e335a4        0x0 common/libcommon.a(cmd_help.o)
 .data          0x57e335a4       0x68 common/libcommon.a(cmd_itest.o)
                0x57e335a4                op_table
 .data          0x57e3360c        0x4 common/libcommon.a(cmd_load.o)
 .data          0x57e33610        0x4 common/libcommon.a(cmd_mem.o)
                0x57e33610                dp_last_length
 .data          0x57e33614        0x0 common/libcommon.a(cmd_misc.o)
 .data          0x57e33614        0x0 common/libcommon.a(cmd_nand.o)
 .data          0x57e33614        0x0 common/libcommon.a(cmd_net.o)
 .data          0x57e33614        0x4 common/libcommon.a(cmd_nvedit.o)
 .data          0x57e33618        0x0 common/libcommon.a(cmd_reginfo.o)
 .data          0x57e33618        0x0 common/libcommon.a(cmd_source.o)
 .data          0x57e33618        0x0 common/libcommon.a(cmd_test.o)
 .data          0x57e33618        0x4 common/libcommon.a(cmd_usb.o)
 .data          0x57e3361c       0x35 common/libcommon.a(cmd_usbd.o)
                0x57e3361c                test_pkt
 .data          0x57e33651        0x0 common/libcommon.a(cmd_version.o)
 .data          0x57e33651        0x0 common/libcommon.a(cmd_ximg.o)
 .data          0x57e33651        0x0 common/libcommon.a(command.o)
 .data          0x57e33651        0x0 common/libcommon.a(console.o)
 *fill*         0x57e33651        0x3 00
 .data          0x57e33654      0x414 common/libcommon.a(dlmalloc.o)
 .data          0x57e33a68       0xe2 common/libcommon.a(env_common.o)
                0x57e33a68                default_environment
 *fill*         0x57e33b4a        0x2 00
 .data          0x57e33b4c        0x8 common/libcommon.a(env_nand.o)
                0x57e33b50                env_name_spec
                0x57e33b4c                env_ptr
 .data          0x57e33b54        0x0 common/libcommon.a(exports.o)
 .data          0x57e33b54        0x0 common/libcommon.a(flash.o)
 .data          0x57e33b54       0xac common/libcommon.a(hush.o)
 .data          0x57e33c00      0x228 common/libcommon.a(image.o)
 .data          0x57e33e28       0x14 common/libcommon.a(main.o)
 .data          0x57e33e3c        0x0 common/libcommon.a(s_record.o)
 .data          0x57e33e3c        0xc common/libcommon.a(stdio.o)
                0x57e33e3c                stdio_names
 .data          0x57e33e48        0x0 common/libcommon.a(usb.o)
 .data          0x57e33e48       0x20 common/libcommon.a(usb_storage.o)
                0x57e33e48                us_direction
 .data          0x57e33e68        0x0 common/libcommon.a(xyzModem.o)
 .data          0x57e33e68        0x0 board/samsung/smdk6410/libsmdk6410.a(smdk6410.o)
 .data          0x57e33e68        0x0 lib_generic/libgeneric.a(crc16.o)
 .data          0x57e33e68        0x0 lib_generic/libgeneric.a(crc32.o)
 .data          0x57e33e68        0x0 lib_generic/libgeneric.a(gunzip.o)
 .data          0x57e33e68        0x0 lib_generic/libgeneric.a(zlib.o)
 .data          0x57e33e68        0x0 cpu/arm1176/s3c64xx/libs3c64xx.a(reset.o)
 .data          0x57e33e68        0x0 lib_arm/libarm.a(bootm.o)
 .data          0x57e33e68        0x0 lib_arm/libarm.a(cache.o)
 .data          0x57e33e68        0x0 lib_arm/libarm.a(cache-cp15.o)
 .data          0x57e33e68        0x4 fs/fat/libfat.a(fat.o)
 .data          0x57e33e6c        0x8 fs/ext2/libext2fs.a(ext2fs.o)
                0x57e33e6c                indir1_blkno
                0x57e33e70                indir2_blkno
 .data          0x57e33e74        0x0 fs/ext2/libext2fs.a(dev.o)
 .data          0x57e33e74        0x0 disk/libdisk.a(part.o)
 .data          0x57e33e74        0x0 disk/libdisk.a(part_dos.o)
 .data          0x57e33e74        0x0 drivers/mtd/nand/libnand.a(nand_util.o)
 .data          0x57e33e74       0x4b drivers/usb/host/libusb_host.a(ohci-hcd.o)
 .data          0x57e33ebf        0x0 drivers/usb/host/libusb_host.a(s3c64xx-hcd.o)
 .data          0x57e33ebf        0x0 cpu/arm1176/libarm1176.a(cpu.o)
 .data          0x57e33ebf        0x0 /home/linx/Git/uboot2010/lib_arm/eabi_compat.o
 .data          0x57e33ebf        0x0 /usr/local/arm/4.3.2/bin/../lib/gcc/arm-none-linux-gnueabi/4.3.2/armv4t/libgcc.a(_udivsi3.o)
 .data          0x57e33ebf        0x0 /usr/local/arm/4.3.2/bin/../lib/gcc/arm-none-linux-gnueabi/4.3.2/armv4t/libgcc.a(_divsi3.o)
 .data          0x57e33ebf        0x0 /usr/local/arm/4.3.2/bin/../lib/gcc/arm-none-linux-gnueabi/4.3.2/armv4t/libgcc.a(_lshrdi3.o)
 .data          0x57e33ebf        0x0 /usr/local/arm/4.3.2/bin/../lib/gcc/arm-none-linux-gnueabi/4.3.2/armv4t/libgcc.a(_ashrdi3.o)
 .data          0x57e33ebf        0x0 /usr/local/arm/4.3.2/bin/../lib/gcc/arm-none-linux-gnueabi/4.3.2/armv4t/libgcc.a(_ashldi3.o)
 .data          0x57e33ebf        0x0 /usr/local/arm/4.3.2/bin/../lib/gcc/arm-none-linux-gnueabi/4.3.2/armv4t/libgcc.a(_dvmd_lnx.o)
                0x57e33ec0                . = ALIGN (0x4)

.got
 *(.got)
                0x57e33ec0                __u_boot_cmd_start = .

.u_boot_cmd     0x57e33ec0      0x600
 *(.u_boot_cmd)
 .u_boot_cmd    0x57e33ec0       0x18 common/libcommon.a(cmd_bdinfo.o)
                0x57e33ec0                __u_boot_cmd_bdinfo
 .u_boot_cmd    0x57e33ed8       0x30 common/libcommon.a(cmd_boot.o)
                0x57e33ef0                __u_boot_cmd_reset
                0x57e33ed8                __u_boot_cmd_go
 .u_boot_cmd    0x57e33f08       0x78 common/libcommon.a(cmd_bootm.o)
                0x57e33f08                __u_boot_cmd_bootm
                0x57e33f50                __u_boot_cmd_iminfo
                0x57e33f38                __u_boot_cmd_bootd
                0x57e33f20                __u_boot_cmd_boot
                0x57e33f68                __u_boot_cmd_imls
 .u_boot_cmd    0x57e33f80       0x18 common/libcommon.a(cmd_bootzImage.o)
                0x57e33f80                __u_boot_cmd_bootzImage
 .u_boot_cmd    0x57e33f98       0x30 common/libcommon.a(cmd_cache.o)
                0x57e33fb0                __u_boot_cmd_dcache
                0x57e33f98                __u_boot_cmd_icache
 .u_boot_cmd    0x57e33fc8       0x18 common/libcommon.a(cmd_console.o)
                0x57e33fc8                __u_boot_cmd_coninfo
 .u_boot_cmd    0x57e33fe0       0x18 common/libcommon.a(cmd_echo.o)
                0x57e33fe0                __u_boot_cmd_echo
 .u_boot_cmd    0x57e33ff8       0x30 common/libcommon.a(cmd_elf.o)
                0x57e34010                __u_boot_cmd_bootvx
                0x57e33ff8                __u_boot_cmd_bootelf
 .u_boot_cmd    0x57e34028       0x18 common/libcommon.a(cmd_exit.o)
                0x57e34028                __u_boot_cmd_exit
 .u_boot_cmd    0x57e34040       0x30 common/libcommon.a(cmd_ext2.o)
                0x57e34058                __u_boot_cmd_ext2load
                0x57e34040                __u_boot_cmd_ext2ls
 .u_boot_cmd    0x57e34070       0x48 common/libcommon.a(cmd_fat.o)
                0x57e340a0                __u_boot_cmd_fatinfo
                0x57e34070                __u_boot_cmd_fatload
                0x57e34088                __u_boot_cmd_fatls
 .u_boot_cmd    0x57e340b8       0x48 common/libcommon.a(cmd_flash.o)
                0x57e340b8                __u_boot_cmd_flinfo
                0x57e340d0                __u_boot_cmd_erase
                0x57e340e8                __u_boot_cmd_protect
 .u_boot_cmd    0x57e34100       0x30 common/libcommon.a(cmd_help.o)
                0x57e34118                __u_boot_cmd_question_mark
                0x57e34100                __u_boot_cmd_help
 .u_boot_cmd    0x57e34130       0x18 common/libcommon.a(cmd_itest.o)
                0x57e34130                __u_boot_cmd_itest
 .u_boot_cmd    0x57e34148       0x48 common/libcommon.a(cmd_load.o)
                0x57e34178                __u_boot_cmd_loady
                0x57e34160                __u_boot_cmd_loadb
                0x57e34148                __u_boot_cmd_loads
 .u_boot_cmd    0x57e34190       0xf0 common/libcommon.a(cmd_mem.o)
                0x57e34190                __u_boot_cmd_md
                0x57e34208                __u_boot_cmd_cmp
                0x57e341d8                __u_boot_cmd_mw
                0x57e34250                __u_boot_cmd_loop
                0x57e34238                __u_boot_cmd_base
                0x57e341a8                __u_boot_cmd_mm
                0x57e34220                __u_boot_cmd_crc32
                0x57e341c0                __u_boot_cmd_nm
                0x57e34268                __u_boot_cmd_mtest
                0x57e341f0                __u_boot_cmd_cp
 .u_boot_cmd    0x57e34280       0x18 common/libcommon.a(cmd_misc.o)
                0x57e34280                __u_boot_cmd_sleep
 .u_boot_cmd    0x57e34298       0x30 common/libcommon.a(cmd_nand.o)
                0x57e34298                __u_boot_cmd_nand
                0x57e342b0                __u_boot_cmd_nboot
 .u_boot_cmd    0x57e342c8       0x78 common/libcommon.a(cmd_net.o)
                0x57e34310                __u_boot_cmd_nfs
                0x57e34328                __u_boot_cmd_ping
                0x57e342f8                __u_boot_cmd_rarpboot
                0x57e342e0                __u_boot_cmd_tftpboot
                0x57e342c8                __u_boot_cmd_bootp
 .u_boot_cmd    0x57e34340       0x78 common/libcommon.a(cmd_nvedit.o)
                0x57e34358                __u_boot_cmd_editenv
                0x57e343a0                __u_boot_cmd_run
                0x57e34340                __u_boot_cmd_saveenv
                0x57e34370                __u_boot_cmd_printenv
                0x57e34388                __u_boot_cmd_setenv
 .u_boot_cmd    0x57e343b8       0x18 common/libcommon.a(cmd_reginfo.o)
                0x57e343b8                __u_boot_cmd_reginfo
 .u_boot_cmd    0x57e343d0       0x18 common/libcommon.a(cmd_source.o)
                0x57e343d0                __u_boot_cmd_source
 .u_boot_cmd    0x57e343e8       0x48 common/libcommon.a(cmd_test.o)
                0x57e34400                __u_boot_cmd_false
                0x57e34418                __u_boot_cmd_true
                0x57e343e8                __u_boot_cmd_test
 .u_boot_cmd    0x57e34430       0x30 common/libcommon.a(cmd_usb.o)
                0x57e34430                __u_boot_cmd_usb
                0x57e34448                __u_boot_cmd_usbboot
 .u_boot_cmd    0x57e34460       0x18 common/libcommon.a(cmd_usbd.o)
                0x57e34460                __u_boot_cmd_dnw
 .u_boot_cmd    0x57e34478       0x18 common/libcommon.a(cmd_version.o)
                0x57e34478                __u_boot_cmd_version
 .u_boot_cmd    0x57e34490       0x18 common/libcommon.a(cmd_ximg.o)
                0x57e34490                __u_boot_cmd_imxtract
 .u_boot_cmd    0x57e344a8       0x18 common/libcommon.a(hush.o)
                0x57e344a8                __u_boot_cmd_showvar
                0x57e344c0                __u_boot_cmd_end = .
                0x57e344c0                . = ALIGN (0x4)

.mmudata
 *(.mmudata)
                0x57e344c0                . = ALIGN (0x4)
                0x57e344c0                __bss_start = .

.bss            0x57e34500    0x41700
 *(.bss)
 .bss           0x57e34500        0x0 cpu/arm1176/start.o
 .bss           0x57e34500        0x0 cpu/arm1176/s3c64xx/cpu_init.o
 .bss           0x57e34500        0x0 board/samsung/smdk6410/lowlevel_init.o
 .bss           0x57e34500        0x0 cpu/arm1176/nand_cp.o
 .bss           0x57e34500        0x4 lib_arm/board.o
                0x57e34500                monitor_flash_len
 .bss           0x57e34504        0x0 lib_generic/libgeneric.a(display_options.o)
 .bss           0x57e34504        0x0 lib_generic/libgeneric.a(net_utils.o)
 .bss           0x57e34504        0x4 lib_generic/libgeneric.a(string.o)
                0x57e34504                ___strtok
 .bss           0x57e34508        0x0 lib_generic/libgeneric.a(vsprintf.o)
 .bss           0x57e34508        0x0 lib_generic/libgeneric.a(ctype.o)
 .bss           0x57e34508        0x0 lib_generic/libgeneric.a(div64.o)
 .bss           0x57e34508        0x0 lib_generic/libgeneric.a(time.o)
 .bss           0x57e34508        0x0 cpu/arm1176/s3c64xx/libs3c64xx.a(speed.o)
 .bss           0x57e34508       0x18 cpu/arm1176/s3c64xx/libs3c64xx.a(timer.o)
 .bss           0x57e34520        0x0 lib_arm/libarm.a(interrupts.o)
 .bss           0x57e34520        0x0 lib_arm/libarm.a(reset.o)
 .bss           0x57e34520       0x14 net/libnet.a(eth.o)
 .bss           0x57e34534     0x25e4 net/libnet.a(net.o)
                0x57e345a0                NetArpWaitTry
                0x57e34568                NetArpWaitPacketMAC
                0x57e34550                NetOurEther
                0x57e3454c                NetOurIP
                0x57e34558                NetPingIP
                0x57e34578                NetServerIP
                0x57e34574                NetArpWaitTxPacketSize
                0x57e3456c                NetArpWaitReplyIP
                0x57e34570                NetArpWaitTxPacket
                0x57e363d8                NetRxPackets
                0x57e36a14                NetOurNISDomain
                0x57e34564                NetArpWaitPacketIP
                0x57e34534                NetState
                0x57e36a96                BootFile
                0x57e3457c                NetServerEther
                0x57e34588                NetOurSubnetMask
                0x57e36a94                NetBootFileSize
                0x57e34548                NetIPID
                0x57e3455c                NetRxPacket
                0x57e36a34                NetOurHostName
                0x57e3458c                NetOurGatewayIP
                0x57e34596                NetEtherNullAddr
                0x57e345b0                NetRestartWrap
                0x57e363e8                NetArpWaitPacketBuf
                0x57e34584                NetTxPacket
                0x57e36a0c                NetBootFileXferSize
                0x57e36a10                NetOurDNSIP
                0x57e34560                NetRxPacketLen
                0x57e345b8                PktBuf
                0x57e36a54                NetOurRootPath
                0x57e345a4                NetArpWaitTimerStart
 .bss           0x57e36b18      0x8b0 net/libnet.a(nfs.o)
 .bss           0x57e373c8        0x4 net/libnet.a(rarp.o)
                0x57e373c8                RarpTry
 .bss           0x57e373cc       0xb4 net/libnet.a(tftp.o)
 .bss           0x57e37480        0x8 net/libnet.a(bootp.o)
                0x57e37480                BootpTry
                0x57e37484                BootpID
 .bss           0x57e37488      0x108 drivers/mtd/libmtd.a(cfi_flash.o)
                0x57e3748c                flash_info
 .bss           0x57e37590        0x0 drivers/mtd/libmtd.a(jedec_flash.o)
 .bss           0x57e37590      0x1c8 drivers/mtd/nand/libnand.a(nand.o)
                0x57e37590                nand_info
 .bss           0x57e37758        0x0 drivers/mtd/nand/libnand.a(nand_base.o)
 .bss           0x57e37758        0x0 drivers/mtd/nand/libnand.a(nand_bbt.o)
 .bss           0x57e37758        0x0 drivers/mtd/nand/libnand.a(nand_ecc.o)
 .bss           0x57e37758        0x0 drivers/mtd/nand/libnand.a(nand_ids.o)
 .bss           0x57e37758        0x4 drivers/mtd/nand/libnand.a(s3c64xx.o)
 .bss           0x57e3775c       0xe0 drivers/net/libnet.a(dm9000x.o)
 .bss           0x57e3783c        0x0 drivers/serial/libserial.a(s3c64xx.o)
 .bss           0x57e3783c        0x0 common/libcommon.a(cmd_bdinfo.o)
 .bss           0x57e3783c        0x0 common/libcommon.a(cmd_boot.o)
 .bss           0x57e3783c       0x8c common/libcommon.a(cmd_bootm.o)
 .bss           0x57e378c8        0x0 common/libcommon.a(cmd_bootzImage.o)
 .bss           0x57e378c8        0x0 common/libcommon.a(cmd_cache.o)
 .bss           0x57e378c8        0x0 common/libcommon.a(cmd_console.o)
 .bss           0x57e378c8        0x0 common/libcommon.a(cmd_echo.o)
 .bss           0x57e378c8        0x0 common/libcommon.a(cmd_elf.o)
 .bss           0x57e378c8        0x0 common/libcommon.a(cmd_exit.o)
 .bss           0x57e378c8        0x0 common/libcommon.a(cmd_ext2.o)
 .bss           0x57e378c8        0x0 common/libcommon.a(cmd_fat.o)
 .bss           0x57e378c8        0x0 common/libcommon.a(cmd_flash.o)
 .bss           0x57e378c8        0x0 common/libcommon.a(cmd_help.o)
 .bss           0x57e378c8        0x0 common/libcommon.a(cmd_itest.o)
 .bss           0x57e378c8       0x60 common/libcommon.a(cmd_load.o)
                0x57e378f4                his_pad_char
                0x57e378d8                os_data_init
                0x57e378f8                send_ptr
                0x57e378e8                os_data_char
                0x57e378f5                his_eol
                0x57e378ec                his_quote
                0x57e378fc                send_parms
                0x57e378f0                his_pad_count
 .bss           0x57e37928       0x14 common/libcommon.a(cmd_mem.o)
                0x57e37938                dp_last_size
                0x57e37934                dp_last_addr
                0x57e37930                mm_last_size
                0x57e3792c                mm_last_addr
 .bss           0x57e3793c        0x0 common/libcommon.a(cmd_misc.o)
 .bss           0x57e3793c        0x0 common/libcommon.a(cmd_nand.o)
 .bss           0x57e3793c        0x0 common/libcommon.a(cmd_net.o)
 .bss           0x57e3793c        0x0 common/libcommon.a(cmd_nvedit.o)
 .bss           0x57e3793c        0x0 common/libcommon.a(cmd_reginfo.o)
 .bss           0x57e3793c        0x0 common/libcommon.a(cmd_source.o)
 .bss           0x57e3793c        0x0 common/libcommon.a(cmd_test.o)
 .bss           0x57e3793c        0x0 common/libcommon.a(cmd_usb.o)
 .bss           0x57e3793c       0xac common/libcommon.a(cmd_usbd.o)
                0x57e379c0                remode_wakeup
                0x57e379c4                get_status
                0x57e379d4                op_mode
                0x57e379cc                get_intf
                0x57e379e4                s3c_got_header
                0x57e379ca                config_value
                0x57e379d8                s3c_receive_done
                0x57e379d0                s3c_usbd_dn_addr
                0x57e379dc                speed
                0x57e379e0                DNW
                0x57e3793c                otg
 .bss           0x57e379e8        0x0 common/libcommon.a(cmd_version.o)
 .bss           0x57e379e8        0x0 common/libcommon.a(cmd_ximg.o)
 .bss           0x57e379e8        0x0 common/libcommon.a(command.o)
 .bss           0x57e379e8        0x8 common/libcommon.a(console.o)
 .bss           0x57e379f0       0x44 common/libcommon.a(dlmalloc.o)
                0x57e379f8                mem_malloc_end
                0x57e379f4                mem_malloc_start
                0x57e379f0                mem_malloc_brk
 .bss           0x57e37a34        0x0 common/libcommon.a(env_common.o)
 .bss           0x57e37a34        0x0 common/libcommon.a(env_nand.o)
 .bss           0x57e37a34        0x0 common/libcommon.a(exports.o)
 .bss           0x57e37a34        0x0 common/libcommon.a(flash.o)
 .bss           0x57e37a34      0x258 common/libcommon.a(hush.o)
                0x57e37c88                nesting_level
                0x57e37c80                last_return_code
 .bss           0x57e37c8c        0x0 common/libcommon.a(image.o)
 .bss           0x57e37c8c     0x1560 common/libcommon.a(main.o)
                0x57e390ec                console_buffer
                0x57e3909c                hist_list
                0x57e37c9c                hist_lines
                0x57e37c98                hist_num
 .bss           0x57e391ec        0x0 common/libcommon.a(s_record.o)
 .bss           0x57e391ec       0x48 common/libcommon.a(stdio.o)
                0x57e39228                stdio_devices
 .bss           0x57e39234     0xaa1c common/libcommon.a(usb.o)
                0x57e43c40                usb_started
 .bss           0x57e43c50      0x5b8 common/libcommon.a(usb_storage.o)
 .bss           0x57e44208      0x43c common/libcommon.a(xyzModem.o)
 .bss           0x57e44644        0x0 board/samsung/smdk6410/libsmdk6410.a(smdk6410.o)
 .bss           0x57e44644        0x0 lib_generic/libgeneric.a(crc16.o)
 .bss           0x57e44644        0x0 lib_generic/libgeneric.a(crc32.o)
 .bss           0x57e44644        0x0 lib_generic/libgeneric.a(gunzip.o)
 .bss           0x57e44644        0x0 lib_generic/libgeneric.a(zlib.o)
 .bss           0x57e44644        0x0 cpu/arm1176/s3c64xx/libs3c64xx.a(reset.o)
 .bss           0x57e44644        0x4 lib_arm/libarm.a(bootm.o)
 .bss           0x57e44648        0x0 lib_arm/libarm.a(cache.o)
 .bss           0x57e44648        0x0 lib_arm/libarm.a(cache-cp15.o)
 .bss           0x57e44648    0x30008 fs/fat/libfat.a(fat.o)
                0x57e44650                get_vfatname_block
                0x57e64650                get_dentfromdir_block
                0x57e54650                do_fat_read_block
 .bss           0x57e74650       0x20 fs/ext2/libext2fs.a(ext2fs.o)
                0x57e74658                ext2fs_file
                0x57e7466c                symlinknest
                0x57e74660                indir1_size
                0x57e7465c                indir1_block
                0x57e74664                indir2_block
                0x57e74654                ext2fs_root
                0x57e74668                indir2_size
 .bss           0x57e74670       0x50 fs/ext2/libext2fs.a(dev.o)
 .bss           0x57e746c0        0x0 disk/libdisk.a(part.o)
 .bss           0x57e746c0        0x0 disk/libdisk.a(part_dos.o)
 .bss           0x57e746c0        0x0 drivers/mtd/nand/libnand.a(nand_util.o)
 *fill*         0x57e746c0       0x40 00
 .bss           0x57e74700     0x1500 drivers/usb/host/libusb_host.a(ohci-hcd.o)
                0x57e74ba0                gtd
                0x57e74a00                ohci_dev
                0x57e75be0                devgone
                0x57e74700                ptd
                0x57e74850                phcca
                0x57e74900                ghcca
 .bss           0x57e75c00        0x0 drivers/usb/host/libusb_host.a(s3c64xx-hcd.o)
 .bss           0x57e75c00        0x0 cpu/arm1176/libarm1176.a(cpu.o)
 .bss           0x57e75c00        0x0 /home/linx/Git/uboot2010/lib_arm/eabi_compat.o
 .bss           0x57e75c00        0x0 /usr/local/arm/4.3.2/bin/../lib/gcc/arm-none-linux-gnueabi/4.3.2/armv4t/libgcc.a(_udivsi3.o)
 .bss           0x57e75c00        0x0 /usr/local/arm/4.3.2/bin/../lib/gcc/arm-none-linux-gnueabi/4.3.2/armv4t/libgcc.a(_divsi3.o)
 .bss           0x57e75c00        0x0 /usr/local/arm/4.3.2/bin/../lib/gcc/arm-none-linux-gnueabi/4.3.2/armv4t/libgcc.a(_lshrdi3.o)
 .bss           0x57e75c00        0x0 /usr/local/arm/4.3.2/bin/../lib/gcc/arm-none-linux-gnueabi/4.3.2/armv4t/libgcc.a(_ashrdi3.o)
 .bss           0x57e75c00        0x0 /usr/local/arm/4.3.2/bin/../lib/gcc/arm-none-linux-gnueabi/4.3.2/armv4t/libgcc.a(_ashldi3.o)
 .bss           0x57e75c00        0x0 /usr/local/arm/4.3.2/bin/../lib/gcc/arm-none-linux-gnueabi/4.3.2/armv4t/libgcc.a(_dvmd_lnx.o)
                0x57e75c00                . = ALIGN (0x4)
                0x57e75c00                _end = .
Address of section .text set to 0x57e00000
LOAD cpu/arm1176/start.o
START GROUP
LOAD lib_generic/libgeneric.a
LOAD lib_generic/lzma/liblzma.a
LOAD lib_generic/lzo/liblzo.a
LOAD cpu/arm1176/libarm1176.a
LOAD cpu/arm1176/s3c64xx/libs3c64xx.a
LOAD lib_arm/libarm.a
LOAD fs/cramfs/libcramfs.a
LOAD fs/fat/libfat.a
LOAD fs/fdos/libfdos.a
LOAD fs/jffs2/libjffs2.a
LOAD fs/reiserfs/libreiserfs.a
LOAD fs/ext2/libext2fs.a
LOAD fs/yaffs2/libyaffs2.a
LOAD fs/ubifs/libubifs.a
LOAD net/libnet.a
LOAD disk/libdisk.a
LOAD drivers/bios_emulator/libatibiosemu.a
LOAD drivers/block/libblock.a
LOAD drivers/dma/libdma.a
LOAD drivers/fpga/libfpga.a
LOAD drivers/gpio/libgpio.a
LOAD drivers/hwmon/libhwmon.a
LOAD drivers/i2c/libi2c.a
LOAD drivers/input/libinput.a
LOAD drivers/misc/libmisc.a
LOAD drivers/mmc/libmmc.a
LOAD drivers/mtd/libmtd.a
LOAD drivers/mtd/nand/libnand.a
LOAD drivers/mtd/onenand/libonenand.a
LOAD drivers/mtd/ubi/libubi.a
LOAD drivers/mtd/spi/libspi_flash.a
LOAD drivers/net/libnet.a
LOAD drivers/net/phy/libphy.a
LOAD drivers/pci/libpci.a
LOAD drivers/pcmcia/libpcmcia.a
LOAD drivers/power/libpower.a
LOAD drivers/spi/libspi.a
LOAD drivers/rtc/librtc.a
LOAD drivers/serial/libserial.a
LOAD drivers/twserial/libtws.a
LOAD drivers/usb/gadget/libusb_gadget.a
LOAD drivers/usb/host/libusb_host.a
LOAD drivers/usb/musb/libusb_musb.a
LOAD drivers/usb/phy/libusb_phy.a
LOAD drivers/video/libvideo.a
LOAD drivers/watchdog/libwatchdog.a
LOAD common/libcommon.a
LOAD libfdt/libfdt.a
LOAD api/libapi.a
LOAD post/libpost.a
LOAD board/samsung/smdk6410/libsmdk6410.a
END GROUP
LOAD /home/linx/Git/uboot2010/lib_arm/eabi_compat.o
LOAD /usr/local/arm/4.3.2/bin/../lib/gcc/arm-none-linux-gnueabi/4.3.2/armv4t/libgcc.a
OUTPUT(u-boot elf32-littlearm)

.ARM.attributes
                0x00000000       0x26
 .ARM.attributes
                0x00000000       0x18 cpu/arm1176/start.o
 .ARM.attributes
                0x00000018       0x18 cpu/arm1176/s3c64xx/cpu_init.o
 .ARM.attributes
                0x00000030       0x18 board/samsung/smdk6410/lowlevel_init.o
 .ARM.attributes
                0x00000048       0x28 cpu/arm1176/nand_cp.o
 .ARM.attributes
                0x00000070       0x28 lib_arm/board.o
 .ARM.attributes
                0x00000098       0x28 lib_generic/libgeneric.a(display_options.o)
 .ARM.attributes
                0x000000c0       0x28 lib_generic/libgeneric.a(net_utils.o)
 .ARM.attributes
                0x000000e8       0x28 lib_generic/libgeneric.a(string.o)
 .ARM.attributes
                0x00000110       0x28 lib_generic/libgeneric.a(vsprintf.o)
 .ARM.attributes
                0x00000138       0x26 lib_generic/libgeneric.a(ctype.o)
 .ARM.attributes
                0x0000015e       0x28 lib_generic/libgeneric.a(div64.o)
 .ARM.attributes
                0x00000186       0x28 lib_generic/libgeneric.a(time.o)
 .ARM.attributes
                0x000001ae       0x28 cpu/arm1176/s3c64xx/libs3c64xx.a(speed.o)
 .ARM.attributes
                0x000001d6       0x28 cpu/arm1176/s3c64xx/libs3c64xx.a(timer.o)
 .ARM.attributes
                0x000001fe       0x28 lib_arm/libarm.a(interrupts.o)
 .ARM.attributes
                0x00000226       0x28 lib_arm/libarm.a(reset.o)
 .ARM.attributes
                0x0000024e       0x28 net/libnet.a(eth.o)
 .ARM.attributes
                0x00000276       0x28 net/libnet.a(net.o)
 .ARM.attributes
                0x0000029e       0x28 net/libnet.a(nfs.o)
 .ARM.attributes
                0x000002c6       0x28 net/libnet.a(rarp.o)
 .ARM.attributes
                0x000002ee       0x28 net/libnet.a(tftp.o)
 .ARM.attributes
                0x00000316       0x28 net/libnet.a(bootp.o)
 .ARM.attributes
                0x0000033e       0x28 drivers/mtd/libmtd.a(cfi_flash.o)
 .ARM.attributes
                0x00000366       0x28 drivers/mtd/libmtd.a(jedec_flash.o)
 .ARM.attributes
                0x0000038e       0x28 drivers/mtd/nand/libnand.a(nand.o)
 .ARM.attributes
                0x000003b6       0x28 drivers/mtd/nand/libnand.a(nand_base.o)
 .ARM.attributes
                0x000003de       0x28 drivers/mtd/nand/libnand.a(nand_bbt.o)
 .ARM.attributes
                0x00000406       0x28 drivers/mtd/nand/libnand.a(nand_ecc.o)
 .ARM.attributes
                0x0000042e       0x26 drivers/mtd/nand/libnand.a(nand_ids.o)
 .ARM.attributes
                0x00000454       0x28 drivers/mtd/nand/libnand.a(s3c64xx.o)
 .ARM.attributes
                0x0000047c       0x28 drivers/net/libnet.a(dm9000x.o)
 .ARM.attributes
                0x000004a4       0x28 drivers/serial/libserial.a(s3c64xx.o)
 .ARM.attributes
                0x000004cc       0x28 common/libcommon.a(cmd_bdinfo.o)
 .ARM.attributes
                0x000004f4       0x28 common/libcommon.a(cmd_boot.o)
 .ARM.attributes
                0x0000051c       0x28 common/libcommon.a(cmd_bootm.o)
 .ARM.attributes
                0x00000544       0x28 common/libcommon.a(cmd_bootzImage.o)
 .ARM.attributes
                0x0000056c       0x28 common/libcommon.a(cmd_cache.o)
 .ARM.attributes
                0x00000594       0x28 common/libcommon.a(cmd_console.o)
 .ARM.attributes
                0x000005bc       0x28 common/libcommon.a(cmd_echo.o)
 .ARM.attributes
                0x000005e4       0x28 common/libcommon.a(cmd_elf.o)
 .ARM.attributes
                0x0000060c       0x28 common/libcommon.a(cmd_exit.o)
 .ARM.attributes
                0x00000634       0x28 common/libcommon.a(cmd_ext2.o)
 .ARM.attributes
                0x0000065c       0x28 common/libcommon.a(cmd_fat.o)
 .ARM.attributes
                0x00000684       0x28 common/libcommon.a(cmd_flash.o)
 .ARM.attributes
                0x000006ac       0x28 common/libcommon.a(cmd_help.o)
 .ARM.attributes
                0x000006d4       0x28 common/libcommon.a(cmd_itest.o)
 .ARM.attributes
                0x000006fc       0x28 common/libcommon.a(cmd_load.o)
 .ARM.attributes
                0x00000724       0x28 common/libcommon.a(cmd_mem.o)
 .ARM.attributes
                0x0000074c       0x28 common/libcommon.a(cmd_misc.o)
 .ARM.attributes
                0x00000774       0x28 common/libcommon.a(cmd_nand.o)
 .ARM.attributes
                0x0000079c       0x28 common/libcommon.a(cmd_net.o)
 .ARM.attributes
                0x000007c4       0x28 common/libcommon.a(cmd_nvedit.o)
 .ARM.attributes
                0x000007ec       0x28 common/libcommon.a(cmd_reginfo.o)
 .ARM.attributes
                0x00000814       0x28 common/libcommon.a(cmd_source.o)
 .ARM.attributes
                0x0000083c       0x28 common/libcommon.a(cmd_test.o)
 .ARM.attributes
                0x00000864       0x28 common/libcommon.a(cmd_usb.o)
 .ARM.attributes
                0x0000088c       0x28 common/libcommon.a(cmd_usbd.o)
 .ARM.attributes
                0x000008b4       0x28 common/libcommon.a(cmd_version.o)
 .ARM.attributes
                0x000008dc       0x28 common/libcommon.a(cmd_ximg.o)
 .ARM.attributes
                0x00000904       0x28 common/libcommon.a(command.o)
 .ARM.attributes
                0x0000092c       0x28 common/libcommon.a(console.o)
 .ARM.attributes
                0x00000954       0x28 common/libcommon.a(dlmalloc.o)
 .ARM.attributes
                0x0000097c       0x28 common/libcommon.a(env_common.o)
 .ARM.attributes
                0x000009a4       0x28 common/libcommon.a(env_nand.o)
 .ARM.attributes
                0x000009cc       0x28 common/libcommon.a(exports.o)
 .ARM.attributes
                0x000009f4       0x28 common/libcommon.a(flash.o)
 .ARM.attributes
                0x00000a1c       0x28 common/libcommon.a(hush.o)
 .ARM.attributes
                0x00000a44       0x28 common/libcommon.a(image.o)
 .ARM.attributes
                0x00000a6c       0x28 common/libcommon.a(main.o)
 .ARM.attributes
                0x00000a94       0x28 common/libcommon.a(s_record.o)
 .ARM.attributes
                0x00000abc       0x28 common/libcommon.a(stdio.o)
 .ARM.attributes
                0x00000ae4       0x28 common/libcommon.a(usb.o)
 .ARM.attributes
                0x00000b0c       0x28 common/libcommon.a(usb_storage.o)
 .ARM.attributes
                0x00000b34       0x28 common/libcommon.a(xyzModem.o)
 .ARM.attributes
                0x00000b5c       0x28 board/samsung/smdk6410/libsmdk6410.a(smdk6410.o)
 .ARM.attributes
                0x00000b84       0x28 lib_generic/libgeneric.a(crc16.o)
 .ARM.attributes
                0x00000bac       0x28 lib_generic/libgeneric.a(crc32.o)
 .ARM.attributes
                0x00000bd4       0x28 lib_generic/libgeneric.a(gunzip.o)
 .ARM.attributes
                0x00000bfc       0x28 lib_generic/libgeneric.a(zlib.o)
 .ARM.attributes
                0x00000c24       0x18 cpu/arm1176/s3c64xx/libs3c64xx.a(reset.o)
 .ARM.attributes
                0x00000c3c       0x28 lib_arm/libarm.a(bootm.o)
 .ARM.attributes
                0x00000c64       0x28 lib_arm/libarm.a(cache.o)
 .ARM.attributes
                0x00000c8c       0x28 lib_arm/libarm.a(cache-cp15.o)
 .ARM.attributes
                0x00000cb4       0x28 fs/fat/libfat.a(fat.o)
 .ARM.attributes
                0x00000cdc       0x28 fs/ext2/libext2fs.a(ext2fs.o)
 .ARM.attributes
                0x00000d04       0x28 fs/ext2/libext2fs.a(dev.o)
 .ARM.attributes
                0x00000d2c       0x28 disk/libdisk.a(part.o)
 .ARM.attributes
                0x00000d54       0x28 disk/libdisk.a(part_dos.o)
 .ARM.attributes
                0x00000d7c       0x28 drivers/mtd/nand/libnand.a(nand_util.o)
 .ARM.attributes
                0x00000da4       0x28 drivers/usb/host/libusb_host.a(ohci-hcd.o)
 .ARM.attributes
                0x00000dcc       0x28 drivers/usb/host/libusb_host.a(s3c64xx-hcd.o)
 .ARM.attributes
                0x00000df4       0x28 cpu/arm1176/libarm1176.a(cpu.o)
 .ARM.attributes
                0x00000e1c       0x28 /home/linx/Git/uboot2010/lib_arm/eabi_compat.o
 .ARM.attributes
                0x00000e44       0x18 /usr/local/arm/4.3.2/bin/../lib/gcc/arm-none-linux-gnueabi/4.3.2/armv4t/libgcc.a(_udivsi3.o)
 .ARM.attributes
                0x00000e5c       0x18 /usr/local/arm/4.3.2/bin/../lib/gcc/arm-none-linux-gnueabi/4.3.2/armv4t/libgcc.a(_divsi3.o)
 .ARM.attributes
                0x00000e74       0x18 /usr/local/arm/4.3.2/bin/../lib/gcc/arm-none-linux-gnueabi/4.3.2/armv4t/libgcc.a(_lshrdi3.o)
 .ARM.attributes
                0x00000e8c       0x18 /usr/local/arm/4.3.2/bin/../lib/gcc/arm-none-linux-gnueabi/4.3.2/armv4t/libgcc.a(_ashrdi3.o)
 .ARM.attributes
                0x00000ea4       0x18 /usr/local/arm/4.3.2/bin/../lib/gcc/arm-none-linux-gnueabi/4.3.2/armv4t/libgcc.a(_ashldi3.o)
 .ARM.attributes
                0x00000ebc       0x18 /usr/local/arm/4.3.2/bin/../lib/gcc/arm-none-linux-gnueabi/4.3.2/armv4t/libgcc.a(_dvmd_lnx.o)

.debug_line     0x00000000     0xa8c0
 .debug_line    0x00000000       0xaa cpu/arm1176/start.o
 .debug_line    0x000000aa       0x7c cpu/arm1176/s3c64xx/cpu_init.o
 .debug_line    0x00000126       0xa9 board/samsung/smdk6410/lowlevel_init.o
 .debug_line    0x000001cf      0x10b cpu/arm1176/nand_cp.o
 .debug_line    0x000002da      0x173 lib_arm/board.o
 .debug_line    0x0000044d      0x106 lib_generic/libgeneric.a(display_options.o)
 .debug_line    0x00000553      0x116 lib_generic/libgeneric.a(net_utils.o)
 .debug_line    0x00000669      0x1b3 lib_generic/libgeneric.a(string.o)
 .debug_line    0x0000081c      0x315 lib_generic/libgeneric.a(vsprintf.o)
 .debug_line    0x00000b31       0x28 lib_generic/libgeneric.a(ctype.o)
 .debug_line    0x00000b59       0xb7 lib_generic/libgeneric.a(div64.o)
 .debug_line    0x00000c10       0x6c lib_generic/libgeneric.a(time.o)
 .debug_line    0x00000c7c       0xaa cpu/arm1176/s3c64xx/libs3c64xx.a(speed.o)
 .debug_line    0x00000d26      0x124 cpu/arm1176/s3c64xx/libs3c64xx.a(timer.o)
 .debug_line    0x00000e4a       0xce lib_arm/libarm.a(interrupts.o)
 .debug_line    0x00000f18       0x6a lib_arm/libarm.a(reset.o)
 .debug_line    0x00000f82      0x1e8 net/libnet.a(eth.o)
 .debug_line    0x0000116a      0x475 net/libnet.a(net.o)
 .debug_line    0x000015df      0x2f2 net/libnet.a(nfs.o)
 .debug_line    0x000018d1       0xde net/libnet.a(rarp.o)
 .debug_line    0x000019af      0x22c net/libnet.a(tftp.o)
 .debug_line    0x00001bdb      0x216 net/libnet.a(bootp.o)
 .debug_line    0x00001df1      0x578 drivers/mtd/libmtd.a(cfi_flash.o)
 .debug_line    0x00002369      0x13d drivers/mtd/libmtd.a(jedec_flash.o)
 .debug_line    0x000024a6      0x170 drivers/mtd/nand/libnand.a(nand.o)
 .debug_line    0x00002616      0x9bc drivers/mtd/nand/libnand.a(nand_base.o)
 .debug_line    0x00002fd2      0x486 drivers/mtd/nand/libnand.a(nand_bbt.o)
 .debug_line    0x00003458      0x19a drivers/mtd/nand/libnand.a(nand_ecc.o)
 .debug_line    0x000035f2       0x60 drivers/mtd/nand/libnand.a(nand_ids.o)
 .debug_line    0x00003652      0x1ab drivers/mtd/nand/libnand.a(s3c64xx.o)
 .debug_line    0x000037fd      0x208 drivers/net/libnet.a(dm9000x.o)
 .debug_line    0x00003a05      0x137 drivers/serial/libserial.a(s3c64xx.o)
 .debug_line    0x00003b3c       0xfe common/libcommon.a(cmd_bdinfo.o)
 .debug_line    0x00003c3a       0xa9 common/libcommon.a(cmd_boot.o)
 .debug_line    0x00003ce3      0x3aa common/libcommon.a(cmd_bootm.o)
 .debug_line    0x0000408d       0xfd common/libcommon.a(cmd_bootzImage.o)
 .debug_line    0x0000418a       0x89 common/libcommon.a(cmd_cache.o)
 .debug_line    0x00004213       0xc1 common/libcommon.a(cmd_console.o)
 .debug_line    0x000042d4       0x77 common/libcommon.a(cmd_echo.o)
 .debug_line    0x0000434b      0x18f common/libcommon.a(cmd_elf.o)
 .debug_line    0x000044da       0x6d common/libcommon.a(cmd_exit.o)
 .debug_line    0x00004547      0x131 common/libcommon.a(cmd_ext2.o)
 .debug_line    0x00004678      0x10f common/libcommon.a(cmd_fat.o)
 .debug_line    0x00004787      0x20c common/libcommon.a(cmd_flash.o)
 .debug_line    0x00004993       0x6c common/libcommon.a(cmd_help.o)
 .debug_line    0x000049ff       0xf1 common/libcommon.a(cmd_itest.o)
 .debug_line    0x00004af0      0x349 common/libcommon.a(cmd_load.o)
 .debug_line    0x00004e39      0x223 common/libcommon.a(cmd_mem.o)
 .debug_line    0x0000505c       0xa9 common/libcommon.a(cmd_misc.o)
 .debug_line    0x00005105      0x322 common/libcommon.a(cmd_nand.o)
 .debug_line    0x00005427      0x125 common/libcommon.a(cmd_net.o)
 .debug_line    0x0000554c      0x24e common/libcommon.a(cmd_nvedit.o)
 .debug_line    0x0000579a       0x6f common/libcommon.a(cmd_reginfo.o)
 .debug_line    0x00005809      0x15d common/libcommon.a(cmd_source.o)
 .debug_line    0x00005966       0xc2 common/libcommon.a(cmd_test.o)
 .debug_line    0x00005a28      0x347 common/libcommon.a(cmd_usb.o)
 .debug_line    0x00005d6f      0x639 common/libcommon.a(cmd_usbd.o)
 .debug_line    0x000063a8       0x6d common/libcommon.a(cmd_version.o)
 .debug_line    0x00006415      0x177 common/libcommon.a(cmd_ximg.o)
 .debug_line    0x0000658c       0xd6 common/libcommon.a(command.o)
 .debug_line    0x00006662      0x25f common/libcommon.a(console.o)
 .debug_line    0x000068c1      0x354 common/libcommon.a(dlmalloc.o)
 .debug_line    0x00006c15      0x139 common/libcommon.a(env_common.o)
 .debug_line    0x00006d4e      0x1ef common/libcommon.a(env_nand.o)
 .debug_line    0x00006f3d      0x146 common/libcommon.a(exports.o)
 .debug_line    0x00007083      0x117 common/libcommon.a(flash.o)
 .debug_line    0x0000719a      0x5bb common/libcommon.a(hush.o)
 .debug_line    0x00007755      0x2f6 common/libcommon.a(image.o)
 .debug_line    0x00007a4b      0x30f common/libcommon.a(main.o)
 .debug_line    0x00007d5a       0xc8 common/libcommon.a(s_record.o)
 .debug_line    0x00007e22      0x155 common/libcommon.a(stdio.o)
 .debug_line    0x00007f77      0x3f7 common/libcommon.a(usb.o)
 .debug_line    0x0000836e      0x4c5 common/libcommon.a(usb_storage.o)
 .debug_line    0x00008833      0x1eb common/libcommon.a(xyzModem.o)
 .debug_line    0x00008a1e      0x113 board/samsung/smdk6410/libsmdk6410.a(smdk6410.o)
 .debug_line    0x00008b31       0xa0 lib_generic/libgeneric.a(crc16.o)
 .debug_line    0x00008bd1      0x116 lib_generic/libgeneric.a(crc32.o)
 .debug_line    0x00008ce7       0xc1 lib_generic/libgeneric.a(gunzip.o)
 .debug_line    0x00008da8      0x633 lib_generic/libgeneric.a(zlib.o)
 .debug_line    0x000093db       0x3c cpu/arm1176/s3c64xx/libs3c64xx.a(reset.o)
 .debug_line    0x00009417      0x15f lib_arm/libarm.a(bootm.o)
 .debug_line    0x00009576       0x38 lib_arm/libarm.a(cache.o)
 .debug_line    0x000095ae       0xe1 lib_arm/libarm.a(cache-cp15.o)
 .debug_line    0x0000968f      0x39b fs/fat/libfat.a(fat.o)
 .debug_line    0x00009a2a      0x28c fs/ext2/libext2fs.a(ext2fs.o)
 .debug_line    0x00009cb6      0x117 fs/ext2/libext2fs.a(dev.o)
 .debug_line    0x00009dcd      0x170 disk/libdisk.a(part.o)
 .debug_line    0x00009f3d      0x137 disk/libdisk.a(part_dos.o)
 .debug_line    0x0000a074      0x25c drivers/mtd/nand/libnand.a(nand_util.o)
 .debug_line    0x0000a2d0      0x529 drivers/usb/host/libusb_host.a(ohci-hcd.o)
 .debug_line    0x0000a7f9       0x49 drivers/usb/host/libusb_host.a(s3c64xx-hcd.o)
 .debug_line    0x0000a842       0x3f cpu/arm1176/libarm1176.a(cpu.o)
 .debug_line    0x0000a881       0x3f /home/linx/Git/uboot2010/lib_arm/eabi_compat.o

.debug_info     0x00000000    0x2fe30
 .debug_info    0x00000000       0x56 cpu/arm1176/start.o
 .debug_info    0x00000056       0x61 cpu/arm1176/s3c64xx/cpu_init.o
 .debug_info    0x000000b7       0x69 board/samsung/smdk6410/lowlevel_init.o
 .debug_info    0x00000120      0x1db cpu/arm1176/nand_cp.o
 .debug_info    0x000002fb      0x490 lib_arm/board.o
 .debug_info    0x0000078b      0x259 lib_generic/libgeneric.a(display_options.o)
 .debug_info    0x000009e4      0x131 lib_generic/libgeneric.a(net_utils.o)
 .debug_info    0x00000b15      0x8d0 lib_generic/libgeneric.a(string.o)
 .debug_info    0x000013e5      0xb07 lib_generic/libgeneric.a(vsprintf.o)
 .debug_info    0x00001eec       0x52 lib_generic/libgeneric.a(ctype.o)
 .debug_info    0x00001f3e      0x12e lib_generic/libgeneric.a(div64.o)
 .debug_info    0x0000206c       0xb2 lib_generic/libgeneric.a(time.o)
 .debug_info    0x0000211e      0x1d6 cpu/arm1176/s3c64xx/libs3c64xx.a(speed.o)
 .debug_info    0x000022f4      0x342 cpu/arm1176/s3c64xx/libs3c64xx.a(timer.o)
 .debug_info    0x00002636      0x261 lib_arm/libarm.a(interrupts.o)
 .debug_info    0x00002897      0x175 lib_arm/libarm.a(reset.o)
 .debug_info    0x00002a0c      0x867 net/libnet.a(eth.o)
 .debug_info    0x00003273     0x13dd net/libnet.a(net.o)
 .debug_info    0x00004650      0xb4c net/libnet.a(nfs.o)
 .debug_info    0x0000519c      0x255 net/libnet.a(rarp.o)
 .debug_info    0x000053f1      0x4d3 net/libnet.a(tftp.o)
 .debug_info    0x000058c4      0x825 net/libnet.a(bootp.o)
 .debug_info    0x000060e9     0x18ce drivers/mtd/libmtd.a(cfi_flash.o)
 .debug_info    0x000079b7      0x548 drivers/mtd/libmtd.a(jedec_flash.o)
 .debug_info    0x00007eff     0x1278 drivers/mtd/nand/libnand.a(nand.o)
 .debug_info    0x00009177     0x3470 drivers/mtd/nand/libnand.a(nand_base.o)
 .debug_info    0x0000c5e7     0x1fa3 drivers/mtd/nand/libnand.a(nand_bbt.o)
 .debug_info    0x0000e58a      0x9b9 drivers/mtd/nand/libnand.a(nand_ecc.o)
 .debug_info    0x0000ef43      0x152 drivers/mtd/nand/libnand.a(nand_ids.o)
 .debug_info    0x0000f095     0x1243 drivers/mtd/nand/libnand.a(s3c64xx.o)
 .debug_info    0x000102d8      0x9c4 drivers/net/libnet.a(dm9000x.o)
 .debug_info    0x00010c9c      0x4d0 drivers/serial/libserial.a(s3c64xx.o)
 .debug_info    0x0001116c      0x3bb common/libcommon.a(cmd_bdinfo.o)
 .debug_info    0x00011527      0x23a common/libcommon.a(cmd_boot.o)
 .debug_info    0x00011761     0x1487 common/libcommon.a(cmd_bootm.o)
 .debug_info    0x00012be8      0x43b common/libcommon.a(cmd_bootzImage.o)
 .debug_info    0x00013023      0x22c common/libcommon.a(cmd_cache.o)
 .debug_info    0x0001324f      0x35b common/libcommon.a(cmd_console.o)
 .debug_info    0x000135aa      0x1c5 common/libcommon.a(cmd_echo.o)
 .debug_info    0x0001376f      0x6a6 common/libcommon.a(cmd_elf.o)
 .debug_info    0x00013e15      0x198 common/libcommon.a(cmd_exit.o)
 .debug_info    0x00013fad      0x52c common/libcommon.a(cmd_ext2.o)
 .debug_info    0x000144d9      0x4fc common/libcommon.a(cmd_fat.o)
 .debug_info    0x000149d5      0x96c common/libcommon.a(cmd_flash.o)
 .debug_info    0x00015341      0x1b7 common/libcommon.a(cmd_help.o)
 .debug_info    0x000154f8      0x442 common/libcommon.a(cmd_itest.o)
 .debug_info    0x0001593a      0xcb8 common/libcommon.a(cmd_load.o)
 .debug_info    0x000165f2      0xa18 common/libcommon.a(cmd_mem.o)
 .debug_info    0x0001700a      0x1b0 common/libcommon.a(cmd_misc.o)
 .debug_info    0x000171ba     0x17ac common/libcommon.a(cmd_nand.o)
 .debug_info    0x00018966      0x57f common/libcommon.a(cmd_net.o)
 .debug_info    0x00018ee5      0x924 common/libcommon.a(cmd_nvedit.o)
 .debug_info    0x00019809      0x183 common/libcommon.a(cmd_reginfo.o)
 .debug_info    0x0001998c      0x473 common/libcommon.a(cmd_source.o)
 .debug_info    0x00019dff      0x2b1 common/libcommon.a(cmd_test.o)
 .debug_info    0x0001a0b0      0xf98 common/libcommon.a(cmd_usb.o)
 .debug_info    0x0001b048     0x14b5 common/libcommon.a(cmd_usbd.o)
 .debug_info    0x0001c4fd      0x1a3 common/libcommon.a(cmd_version.o)
 .debug_info    0x0001c6a0      0x471 common/libcommon.a(cmd_ximg.o)
 .debug_info    0x0001cb11      0x38d common/libcommon.a(command.o)
 .debug_info    0x0001ce9e      0xa76 common/libcommon.a(console.o)
 .debug_info    0x0001d914      0xc3f common/libcommon.a(dlmalloc.o)
 .debug_info    0x0001e553      0x381 common/libcommon.a(env_common.o)
 .debug_info    0x0001e8d4      0xd32 common/libcommon.a(env_nand.o)
 .debug_info    0x0001f606      0x2cf common/libcommon.a(exports.o)
 .debug_info    0x0001f8d5      0x444 common/libcommon.a(flash.o)
 .debug_info    0x0001fd19     0x17f6 common/libcommon.a(hush.o)
 .debug_info    0x0002150f     0x10f1 common/libcommon.a(image.o)
 .debug_info    0x00022600      0xc69 common/libcommon.a(main.o)
 .debug_info    0x00023269      0x18b common/libcommon.a(s_record.o)
 .debug_info    0x000233f4      0x578 common/libcommon.a(stdio.o)
 .debug_info    0x0002396c     0x174e common/libcommon.a(usb.o)
 .debug_info    0x000250ba     0x15dd common/libcommon.a(usb_storage.o)
 .debug_info    0x00026697      0x672 common/libcommon.a(xyzModem.o)
 .debug_info    0x00026d09      0x486 board/samsung/smdk6410/libsmdk6410.a(smdk6410.o)
 .debug_info    0x0002718f      0x10a lib_generic/libgeneric.a(crc16.o)
 .debug_info    0x00027299      0x268 lib_generic/libgeneric.a(crc32.o)
 .debug_info    0x00027501      0x3f3 lib_generic/libgeneric.a(gunzip.o)
 .debug_info    0x000278f4     0x107c lib_generic/libgeneric.a(zlib.o)
 .debug_info    0x00028970       0x5e cpu/arm1176/s3c64xx/libs3c64xx.a(reset.o)
 .debug_info    0x000289ce      0xa48 lib_arm/libarm.a(bootm.o)
 .debug_info    0x00029416       0xa4 lib_arm/libarm.a(cache.o)
 .debug_info    0x000294ba      0x1e9 lib_arm/libarm.a(cache-cp15.o)
 .debug_info    0x000296a3     0x1234 fs/fat/libfat.a(fat.o)
 .debug_info    0x0002a8d7      0xe2f fs/ext2/libext2fs.a(ext2fs.o)
 .debug_info    0x0002b706      0x3b9 fs/ext2/libext2fs.a(dev.o)
 .debug_info    0x0002babf      0x624 disk/libdisk.a(part.o)
 .debug_info    0x0002c0e3      0x64b disk/libdisk.a(part_dos.o)
 .debug_info    0x0002c72e     0x1526 drivers/mtd/nand/libnand.a(nand_util.o)
 .debug_info    0x0002dc54     0x1fde drivers/usb/host/libusb_host.a(ohci-hcd.o)
 .debug_info    0x0002fc32       0xb7 drivers/usb/host/libusb_host.a(s3c64xx-hcd.o)
 .debug_info    0x0002fce9       0xa8 cpu/arm1176/libarm1176.a(cpu.o)
 .debug_info    0x0002fd91       0x9f /home/linx/Git/uboot2010/lib_arm/eabi_compat.o

.debug_abbrev   0x00000000     0xa752
 .debug_abbrev  0x00000000       0x14 cpu/arm1176/start.o
 .debug_abbrev  0x00000014       0x14 cpu/arm1176/s3c64xx/cpu_init.o
 .debug_abbrev  0x00000028       0x14 board/samsung/smdk6410/lowlevel_init.o
 .debug_abbrev  0x0000003c      0x13a cpu/arm1176/nand_cp.o
 .debug_abbrev  0x00000176      0x217 lib_arm/board.o
 .debug_abbrev  0x0000038d      0x11e lib_generic/libgeneric.a(display_options.o)
 .debug_abbrev  0x000004ab       0xdb lib_generic/libgeneric.a(net_utils.o)
 .debug_abbrev  0x00000586      0x1f4 lib_generic/libgeneric.a(string.o)
 .debug_abbrev  0x0000077a      0x32a lib_generic/libgeneric.a(vsprintf.o)
 .debug_abbrev  0x00000aa4       0x4b lib_generic/libgeneric.a(ctype.o)
 .debug_abbrev  0x00000aef       0xab lib_generic/libgeneric.a(div64.o)
 .debug_abbrev  0x00000b9a       0x73 lib_generic/libgeneric.a(time.o)
 .debug_abbrev  0x00000c0d       0xe5 cpu/arm1176/s3c64xx/libs3c64xx.a(speed.o)
 .debug_abbrev  0x00000cf2      0x1af cpu/arm1176/s3c64xx/libs3c64xx.a(timer.o)
 .debug_abbrev  0x00000ea1       0xfe lib_arm/libarm.a(interrupts.o)
 .debug_abbrev  0x00000f9f       0xae lib_arm/libarm.a(reset.o)
 .debug_abbrev  0x0000104d      0x316 net/libnet.a(eth.o)
 .debug_abbrev  0x00001363      0x45e net/libnet.a(net.o)
 .debug_abbrev  0x000017c1      0x2c6 net/libnet.a(nfs.o)
 .debug_abbrev  0x00001a87      0x111 net/libnet.a(rarp.o)
 .debug_abbrev  0x00001b98      0x21d net/libnet.a(tftp.o)
 .debug_abbrev  0x00001db5      0x317 net/libnet.a(bootp.o)
 .debug_abbrev  0x000020cc      0x3c7 drivers/mtd/libmtd.a(cfi_flash.o)
 .debug_abbrev  0x00002493      0x175 drivers/mtd/libmtd.a(jedec_flash.o)
 .debug_abbrev  0x00002608      0x1e7 drivers/mtd/nand/libnand.a(nand.o)
 .debug_abbrev  0x000027ef      0x3e0 drivers/mtd/nand/libnand.a(nand_base.o)
 .debug_abbrev  0x00002bcf      0x38b drivers/mtd/nand/libnand.a(nand_bbt.o)
 .debug_abbrev  0x00002f5a      0x1c1 drivers/mtd/nand/libnand.a(nand_ecc.o)
 .debug_abbrev  0x0000311b       0x8c drivers/mtd/nand/libnand.a(nand_ids.o)
 .debug_abbrev  0x000031a7      0x227 drivers/mtd/nand/libnand.a(s3c64xx.o)
 .debug_abbrev  0x000033ce      0x29a drivers/net/libnet.a(dm9000x.o)
 .debug_abbrev  0x00003668      0x177 drivers/serial/libserial.a(s3c64xx.o)
 .debug_abbrev  0x000037df      0x198 common/libcommon.a(cmd_bdinfo.o)
 .debug_abbrev  0x00003977       0xdf common/libcommon.a(cmd_boot.o)
 .debug_abbrev  0x00003a56      0x371 common/libcommon.a(cmd_bootm.o)
 .debug_abbrev  0x00003dc7      0x17a common/libcommon.a(cmd_bootzImage.o)
 .debug_abbrev  0x00003f41       0xee common/libcommon.a(cmd_cache.o)
 .debug_abbrev  0x0000402f      0x185 common/libcommon.a(cmd_console.o)
 .debug_abbrev  0x000041b4       0xf7 common/libcommon.a(cmd_echo.o)
 .debug_abbrev  0x000042ab      0x1db common/libcommon.a(cmd_elf.o)
 .debug_abbrev  0x00004486       0xd0 common/libcommon.a(cmd_exit.o)
 .debug_abbrev  0x00004556      0x14f common/libcommon.a(cmd_ext2.o)
 .debug_abbrev  0x000046a5      0x128 common/libcommon.a(cmd_fat.o)
 .debug_abbrev  0x000047cd      0x202 common/libcommon.a(cmd_flash.o)
 .debug_abbrev  0x000049cf       0xd2 common/libcommon.a(cmd_help.o)
 .debug_abbrev  0x00004aa1      0x1a0 common/libcommon.a(cmd_itest.o)
 .debug_abbrev  0x00004c41      0x3c3 common/libcommon.a(cmd_load.o)
 .debug_abbrev  0x00005004      0x1c8 common/libcommon.a(cmd_mem.o)
 .debug_abbrev  0x000051cc       0xd0 common/libcommon.a(cmd_misc.o)
 .debug_abbrev  0x0000529c      0x379 common/libcommon.a(cmd_nand.o)
 .debug_abbrev  0x00005615      0x1d0 common/libcommon.a(cmd_net.o)
 .debug_abbrev  0x000057e5      0x272 common/libcommon.a(cmd_nvedit.o)
 .debug_abbrev  0x00005a57       0xd0 common/libcommon.a(cmd_reginfo.o)
 .debug_abbrev  0x00005b27      0x1b4 common/libcommon.a(cmd_source.o)
 .debug_abbrev  0x00005cdb      0x125 common/libcommon.a(cmd_test.o)
 .debug_abbrev  0x00005e00      0x2c5 common/libcommon.a(cmd_usb.o)
 .debug_abbrev  0x000060c5      0x28d common/libcommon.a(cmd_usbd.o)
 .debug_abbrev  0x00006352       0xe0 common/libcommon.a(cmd_version.o)
 .debug_abbrev  0x00006432      0x1ba common/libcommon.a(cmd_ximg.o)
 .debug_abbrev  0x000065ec      0x1b3 common/libcommon.a(command.o)
 .debug_abbrev  0x0000679f      0x38b common/libcommon.a(console.o)
 .debug_abbrev  0x00006b2a      0x274 common/libcommon.a(dlmalloc.o)
 .debug_abbrev  0x00006d9e      0x17a common/libcommon.a(env_common.o)
 .debug_abbrev  0x00006f18      0x2cf common/libcommon.a(env_nand.o)
 .debug_abbrev  0x000071e7      0x112 common/libcommon.a(exports.o)
 .debug_abbrev  0x000072f9      0x176 common/libcommon.a(flash.o)
 .debug_abbrev  0x0000746f      0x3af common/libcommon.a(hush.o)
 .debug_abbrev  0x0000781e      0x3f0 common/libcommon.a(image.o)
 .debug_abbrev  0x00007c0e      0x32c common/libcommon.a(main.o)
 .debug_abbrev  0x00007f3a       0xdb common/libcommon.a(s_record.o)
 .debug_abbrev  0x00008015      0x1f8 common/libcommon.a(stdio.o)
 .debug_abbrev  0x0000820d      0x355 common/libcommon.a(usb.o)
 .debug_abbrev  0x00008562      0x2f8 common/libcommon.a(usb_storage.o)
 .debug_abbrev  0x0000885a      0x26d common/libcommon.a(xyzModem.o)
 .debug_abbrev  0x00008ac7      0x155 board/samsung/smdk6410/libsmdk6410.a(smdk6410.o)
 .debug_abbrev  0x00008c1c       0xb7 lib_generic/libgeneric.a(crc16.o)
 .debug_abbrev  0x00008cd3       0xfe lib_generic/libgeneric.a(crc32.o)
 .debug_abbrev  0x00008dd1      0x135 lib_generic/libgeneric.a(gunzip.o)
 .debug_abbrev  0x00008f06      0x2c0 lib_generic/libgeneric.a(zlib.o)
 .debug_abbrev  0x000091c6       0x14 cpu/arm1176/s3c64xx/libs3c64xx.a(reset.o)
 .debug_abbrev  0x000091da      0x217 lib_arm/libarm.a(bootm.o)
 .debug_abbrev  0x000093f1       0x57 lib_arm/libarm.a(cache.o)
 .debug_abbrev  0x00009448       0xfd lib_arm/libarm.a(cache-cp15.o)
 .debug_abbrev  0x00009545      0x320 fs/fat/libfat.a(fat.o)
 .debug_abbrev  0x00009865      0x2a8 fs/ext2/libext2fs.a(ext2fs.o)
 .debug_abbrev  0x00009b0d      0x132 fs/ext2/libext2fs.a(dev.o)
 .debug_abbrev  0x00009c3f      0x1e6 disk/libdisk.a(part.o)
 .debug_abbrev  0x00009e25      0x1e5 disk/libdisk.a(part_dos.o)
 .debug_abbrev  0x0000a00a      0x257 drivers/mtd/nand/libnand.a(nand_util.o)
 .debug_abbrev  0x0000a261      0x3d1 drivers/usb/host/libusb_host.a(ohci-hcd.o)
 .debug_abbrev  0x0000a632       0x5f drivers/usb/host/libusb_host.a(s3c64xx-hcd.o)
 .debug_abbrev  0x0000a691       0x68 cpu/arm1176/libarm1176.a(cpu.o)
 .debug_abbrev  0x0000a6f9       0x59 /home/linx/Git/uboot2010/lib_arm/eabi_compat.o

.debug_aranges  0x00000000      0xb60
 .debug_aranges
                0x00000000       0x20 cpu/arm1176/start.o
 .debug_aranges
                0x00000020       0x20 cpu/arm1176/s3c64xx/cpu_init.o
 .debug_aranges
                0x00000040       0x20 board/samsung/smdk6410/lowlevel_init.o
 .debug_aranges
                0x00000060       0x20 cpu/arm1176/nand_cp.o
 .debug_aranges
                0x00000080       0x20 lib_arm/board.o
 .debug_aranges
                0x000000a0       0x20 lib_generic/libgeneric.a(display_options.o)
 .debug_aranges
                0x000000c0       0x20 lib_generic/libgeneric.a(net_utils.o)
 .debug_aranges
                0x000000e0       0x20 lib_generic/libgeneric.a(string.o)
 .debug_aranges
                0x00000100       0x20 lib_generic/libgeneric.a(vsprintf.o)
 .debug_aranges
                0x00000120       0x20 lib_generic/libgeneric.a(div64.o)
 .debug_aranges
                0x00000140       0x20 lib_generic/libgeneric.a(time.o)
 .debug_aranges
                0x00000160       0x20 cpu/arm1176/s3c64xx/libs3c64xx.a(speed.o)
 .debug_aranges
                0x00000180       0x20 cpu/arm1176/s3c64xx/libs3c64xx.a(timer.o)
 .debug_aranges
                0x000001a0       0x20 lib_arm/libarm.a(interrupts.o)
 .debug_aranges
                0x000001c0       0x20 lib_arm/libarm.a(reset.o)
 .debug_aranges
                0x000001e0       0x20 net/libnet.a(eth.o)
 .debug_aranges
                0x00000200       0x20 net/libnet.a(net.o)
 .debug_aranges
                0x00000220       0x20 net/libnet.a(nfs.o)
 .debug_aranges
                0x00000240       0x20 net/libnet.a(rarp.o)
 .debug_aranges
                0x00000260       0x20 net/libnet.a(tftp.o)
 .debug_aranges
                0x00000280       0x20 net/libnet.a(bootp.o)
 .debug_aranges
                0x000002a0       0x20 drivers/mtd/libmtd.a(cfi_flash.o)
 .debug_aranges
                0x000002c0       0x20 drivers/mtd/libmtd.a(jedec_flash.o)
 .debug_aranges
                0x000002e0       0x20 drivers/mtd/nand/libnand.a(nand.o)
 .debug_aranges
                0x00000300       0x20 drivers/mtd/nand/libnand.a(nand_base.o)
 .debug_aranges
                0x00000320       0x20 drivers/mtd/nand/libnand.a(nand_bbt.o)
 .debug_aranges
                0x00000340       0x20 drivers/mtd/nand/libnand.a(nand_ecc.o)
 .debug_aranges
                0x00000360       0x20 drivers/mtd/nand/libnand.a(s3c64xx.o)
 .debug_aranges
                0x00000380       0x20 drivers/net/libnet.a(dm9000x.o)
 .debug_aranges
                0x000003a0       0x20 drivers/serial/libserial.a(s3c64xx.o)
 .debug_aranges
                0x000003c0       0x20 common/libcommon.a(cmd_bdinfo.o)
 .debug_aranges
                0x000003e0       0x20 common/libcommon.a(cmd_boot.o)
 .debug_aranges
                0x00000400       0x20 common/libcommon.a(cmd_bootm.o)
 .debug_aranges
                0x00000420       0x20 common/libcommon.a(cmd_bootzImage.o)
 .debug_aranges
                0x00000440       0x20 common/libcommon.a(cmd_cache.o)
 .debug_aranges
                0x00000460       0x20 common/libcommon.a(cmd_console.o)
 .debug_aranges
                0x00000480       0x20 common/libcommon.a(cmd_echo.o)
 .debug_aranges
                0x000004a0       0x20 common/libcommon.a(cmd_elf.o)
 .debug_aranges
                0x000004c0       0x20 common/libcommon.a(cmd_exit.o)
 .debug_aranges
                0x000004e0       0x20 common/libcommon.a(cmd_ext2.o)
 .debug_aranges
                0x00000500       0x20 common/libcommon.a(cmd_fat.o)
 .debug_aranges
                0x00000520       0x20 common/libcommon.a(cmd_flash.o)
 .debug_aranges
                0x00000540       0x20 common/libcommon.a(cmd_help.o)
 .debug_aranges
                0x00000560       0x20 common/libcommon.a(cmd_itest.o)
 .debug_aranges
                0x00000580       0x20 common/libcommon.a(cmd_load.o)
 .debug_aranges
                0x000005a0       0x20 common/libcommon.a(cmd_mem.o)
 .debug_aranges
                0x000005c0       0x20 common/libcommon.a(cmd_misc.o)
 .debug_aranges
                0x000005e0       0x20 common/libcommon.a(cmd_nand.o)
 .debug_aranges
                0x00000600       0x20 common/libcommon.a(cmd_net.o)
 .debug_aranges
                0x00000620       0x20 common/libcommon.a(cmd_nvedit.o)
 .debug_aranges
                0x00000640       0x20 common/libcommon.a(cmd_reginfo.o)
 .debug_aranges
                0x00000660       0x20 common/libcommon.a(cmd_source.o)
 .debug_aranges
                0x00000680       0x20 common/libcommon.a(cmd_test.o)
 .debug_aranges
                0x000006a0       0x20 common/libcommon.a(cmd_usb.o)
 .debug_aranges
                0x000006c0       0x20 common/libcommon.a(cmd_usbd.o)
 .debug_aranges
                0x000006e0       0x20 common/libcommon.a(cmd_version.o)
 .debug_aranges
                0x00000700       0x20 common/libcommon.a(cmd_ximg.o)
 .debug_aranges
                0x00000720       0x20 common/libcommon.a(command.o)
 .debug_aranges
                0x00000740       0x20 common/libcommon.a(console.o)
 .debug_aranges
                0x00000760       0x20 common/libcommon.a(dlmalloc.o)
 .debug_aranges
                0x00000780       0x20 common/libcommon.a(env_common.o)
 .debug_aranges
                0x000007a0       0x20 common/libcommon.a(env_nand.o)
 .debug_aranges
                0x000007c0       0x20 common/libcommon.a(exports.o)
 .debug_aranges
                0x000007e0       0x20 common/libcommon.a(flash.o)
 .debug_aranges
                0x00000800       0x20 common/libcommon.a(hush.o)
 .debug_aranges
                0x00000820       0x20 common/libcommon.a(image.o)
 .debug_aranges
                0x00000840       0x20 common/libcommon.a(main.o)
 .debug_aranges
                0x00000860       0x20 common/libcommon.a(s_record.o)
 .debug_aranges
                0x00000880       0x20 common/libcommon.a(stdio.o)
 .debug_aranges
                0x000008a0       0x20 common/libcommon.a(usb.o)
 .debug_aranges
                0x000008c0       0x20 common/libcommon.a(usb_storage.o)
 .debug_aranges
                0x000008e0       0x20 common/libcommon.a(xyzModem.o)
 .debug_aranges
                0x00000900       0x20 board/samsung/smdk6410/libsmdk6410.a(smdk6410.o)
 .debug_aranges
                0x00000920       0x20 lib_generic/libgeneric.a(crc16.o)
 .debug_aranges
                0x00000940       0x20 lib_generic/libgeneric.a(crc32.o)
 .debug_aranges
                0x00000960       0x20 lib_generic/libgeneric.a(gunzip.o)
 .debug_aranges
                0x00000980       0x20 lib_generic/libgeneric.a(zlib.o)
 .debug_aranges
                0x000009a0       0x20 cpu/arm1176/s3c64xx/libs3c64xx.a(reset.o)
 .debug_aranges
                0x000009c0       0x20 lib_arm/libarm.a(bootm.o)
 .debug_aranges
                0x000009e0       0x20 lib_arm/libarm.a(cache.o)
 .debug_aranges
                0x00000a00       0x20 lib_arm/libarm.a(cache-cp15.o)
 .debug_aranges
                0x00000a20       0x20 fs/fat/libfat.a(fat.o)
 .debug_aranges
                0x00000a40       0x20 fs/ext2/libext2fs.a(ext2fs.o)
 .debug_aranges
                0x00000a60       0x20 fs/ext2/libext2fs.a(dev.o)
 .debug_aranges
                0x00000a80       0x20 disk/libdisk.a(part.o)
 .debug_aranges
                0x00000aa0       0x20 disk/libdisk.a(part_dos.o)
 .debug_aranges
                0x00000ac0       0x20 drivers/mtd/nand/libnand.a(nand_util.o)
 .debug_aranges
                0x00000ae0       0x20 drivers/usb/host/libusb_host.a(ohci-hcd.o)
 .debug_aranges
                0x00000b00       0x20 drivers/usb/host/libusb_host.a(s3c64xx-hcd.o)
 .debug_aranges
                0x00000b20       0x20 cpu/arm1176/libarm1176.a(cpu.o)
 .debug_aranges
                0x00000b40       0x20 /home/linx/Git/uboot2010/lib_arm/eabi_compat.o

.debug_frame    0x00000000     0x5a10
 .debug_frame   0x00000000       0x50 cpu/arm1176/nand_cp.o
 .debug_frame   0x00000050      0x11c lib_arm/board.o
 .debug_frame   0x0000016c       0x70 lib_generic/libgeneric.a(display_options.o)
 .debug_frame   0x000001dc       0x30 lib_generic/libgeneric.a(net_utils.o)
 .debug_frame   0x0000020c      0x22c lib_generic/libgeneric.a(string.o)
 .debug_frame   0x00000438      0x1ac lib_generic/libgeneric.a(vsprintf.o)
 .debug_frame   0x000005e4       0x34 lib_generic/libgeneric.a(div64.o)
 .debug_frame   0x00000618       0x2c lib_generic/libgeneric.a(time.o)
 .debug_frame   0x00000644       0xb8 cpu/arm1176/s3c64xx/libs3c64xx.a(speed.o)
 .debug_frame   0x000006fc       0xf8 cpu/arm1176/s3c64xx/libs3c64xx.a(timer.o)
 .debug_frame   0x000007f4      0x110 lib_arm/libarm.a(interrupts.o)
 .debug_frame   0x00000904       0x28 lib_arm/libarm.a(reset.o)
 .debug_frame   0x0000092c      0x1d0 net/libnet.a(eth.o)
 .debug_frame   0x00000afc      0x30c net/libnet.a(net.o)
 .debug_frame   0x00000e08      0x294 net/libnet.a(nfs.o)
 .debug_frame   0x0000109c       0x60 net/libnet.a(rarp.o)
 .debug_frame   0x000010fc       0x98 net/libnet.a(tftp.o)
 .debug_frame   0x00001194       0xf8 net/libnet.a(bootp.o)
 .debug_frame   0x0000128c      0x2d0 drivers/mtd/libmtd.a(cfi_flash.o)
 .debug_frame   0x0000155c       0x3c drivers/mtd/libmtd.a(jedec_flash.o)
 .debug_frame   0x00001598       0x2c drivers/mtd/nand/libnand.a(nand.o)
 .debug_frame   0x000015c4      0x758 drivers/mtd/nand/libnand.a(nand_base.o)
 .debug_frame   0x00001d1c      0x1b8 drivers/mtd/nand/libnand.a(nand_bbt.o)
 .debug_frame   0x00001ed4       0x50 drivers/mtd/nand/libnand.a(nand_ecc.o)
 .debug_frame   0x00001f24       0xb0 drivers/mtd/nand/libnand.a(s3c64xx.o)
 .debug_frame   0x00001fd4      0x1a8 drivers/net/libnet.a(dm9000x.o)
 .debug_frame   0x0000217c       0xb4 drivers/serial/libserial.a(s3c64xx.o)
 .debug_frame   0x00002230       0x3c common/libcommon.a(cmd_bdinfo.o)
 .debug_frame   0x0000226c       0x44 common/libcommon.a(cmd_boot.o)
 .debug_frame   0x000022b0      0x204 common/libcommon.a(cmd_bootm.o)
 .debug_frame   0x000024b4       0x2c common/libcommon.a(cmd_bootzImage.o)
 .debug_frame   0x000024e0       0x58 common/libcommon.a(cmd_cache.o)
 .debug_frame   0x00002538       0x30 common/libcommon.a(cmd_console.o)
 .debug_frame   0x00002568       0x30 common/libcommon.a(cmd_echo.o)
 .debug_frame   0x00002598       0xa8 common/libcommon.a(cmd_elf.o)
 .debug_frame   0x00002640       0x28 common/libcommon.a(cmd_exit.o)
 .debug_frame   0x00002668       0x5c common/libcommon.a(cmd_ext2.o)
 .debug_frame   0x000026c4       0x7c common/libcommon.a(cmd_fat.o)
 .debug_frame   0x00002740      0x138 common/libcommon.a(cmd_flash.o)
 .debug_frame   0x00002878       0x30 common/libcommon.a(cmd_help.o)
 .debug_frame   0x000028a8       0x74 common/libcommon.a(cmd_itest.o)
 .debug_frame   0x0000291c      0x1dc common/libcommon.a(cmd_load.o)
 .debug_frame   0x00002af8      0x180 common/libcommon.a(cmd_mem.o)
 .debug_frame   0x00002c78       0x30 common/libcommon.a(cmd_misc.o)
 .debug_frame   0x00002ca8       0xe8 common/libcommon.a(cmd_nand.o)
 .debug_frame   0x00002d90       0x90 common/libcommon.a(cmd_net.o)
 .debug_frame   0x00002e20      0x15c common/libcommon.a(cmd_nvedit.o)
 .debug_frame   0x00002f7c       0x20 common/libcommon.a(cmd_reginfo.o)
 .debug_frame   0x00002f9c       0x58 common/libcommon.a(cmd_source.o)
 .debug_frame   0x00002ff4       0x54 common/libcommon.a(cmd_test.o)
 .debug_frame   0x00003048      0x17c common/libcommon.a(cmd_usb.o)
 .debug_frame   0x000031c4      0x470 common/libcommon.a(cmd_usbd.o)
 .debug_frame   0x00003634       0x28 common/libcommon.a(cmd_version.o)
 .debug_frame   0x0000365c       0x38 common/libcommon.a(cmd_ximg.o)
 .debug_frame   0x00003694       0xa0 common/libcommon.a(command.o)
 .debug_frame   0x00003734      0x238 common/libcommon.a(console.o)
 .debug_frame   0x0000396c      0x14c common/libcommon.a(dlmalloc.o)
 .debug_frame   0x00003ab8       0x88 common/libcommon.a(env_common.o)
 .debug_frame   0x00003b40       0xe8 common/libcommon.a(env_nand.o)
 .debug_frame   0x00003c28       0x58 common/libcommon.a(exports.o)
 .debug_frame   0x00003c80       0x7c common/libcommon.a(flash.o)
 .debug_frame   0x00003cfc      0x37c common/libcommon.a(hush.o)
 .debug_frame   0x00004078      0x288 common/libcommon.a(image.o)
 .debug_frame   0x00004300      0x134 common/libcommon.a(main.o)
 .debug_frame   0x00004434       0x64 common/libcommon.a(s_record.o)
 .debug_frame   0x00004498       0x8c common/libcommon.a(stdio.o)
 .debug_frame   0x00004524      0x4b8 common/libcommon.a(usb.o)
 .debug_frame   0x000049dc      0x278 common/libcommon.a(usb_storage.o)
 .debug_frame   0x00004c54      0x124 common/libcommon.a(xyzModem.o)
 .debug_frame   0x00004d78       0x68 board/samsung/smdk6410/libsmdk6410.a(smdk6410.o)
 .debug_frame   0x00004de0       0x28 lib_generic/libgeneric.a(crc16.o)
 .debug_frame   0x00004e08       0x58 lib_generic/libgeneric.a(crc32.o)
 .debug_frame   0x00004e60       0x74 lib_generic/libgeneric.a(gunzip.o)
 .debug_frame   0x00004ed4      0x12c lib_generic/libgeneric.a(zlib.o)
 .debug_frame   0x00005000       0x34 lib_arm/libarm.a(bootm.o)
 .debug_frame   0x00005034       0x20 lib_arm/libarm.a(cache.o)
 .debug_frame   0x00005054       0xec lib_arm/libarm.a(cache-cp15.o)
 .debug_frame   0x00005140      0x1c0 fs/fat/libfat.a(fat.o)
 .debug_frame   0x00005300      0x158 fs/ext2/libext2fs.a(ext2fs.o)
 .debug_frame   0x00005458       0x50 fs/ext2/libext2fs.a(dev.o)
 .debug_frame   0x000054a8       0x9c disk/libdisk.a(part.o)
 .debug_frame   0x00005544       0xd0 disk/libdisk.a(part_dos.o)
 .debug_frame   0x00005614      0x11c drivers/mtd/nand/libnand.a(nand_util.o)
 .debug_frame   0x00005730      0x210 drivers/usb/host/libusb_host.a(ohci-hcd.o)
 .debug_frame   0x00005940       0x40 drivers/usb/host/libusb_host.a(s3c64xx-hcd.o)
 .debug_frame   0x00005980       0x28 cpu/arm1176/libarm1176.a(cpu.o)
 .debug_frame   0x000059a8       0x28 /home/linx/Git/uboot2010/lib_arm/eabi_compat.o
 .debug_frame   0x000059d0       0x20 /usr/local/arm/4.3.2/bin/../lib/gcc/arm-none-linux-gnueabi/4.3.2/armv4t/libgcc.a(_udivsi3.o)
 .debug_frame   0x000059f0       0x20 /usr/local/arm/4.3.2/bin/../lib/gcc/arm-none-linux-gnueabi/4.3.2/armv4t/libgcc.a(_divsi3.o)

.debug_loc      0x00000000    0x1cd08
 .debug_loc     0x00000000      0x166 cpu/arm1176/nand_cp.o
 .debug_loc     0x00000166       0xa7 lib_arm/board.o
 .debug_loc     0x0000020d      0x187 lib_generic/libgeneric.a(display_options.o)
 .debug_loc     0x00000394       0x66 lib_generic/libgeneric.a(net_utils.o)
 .debug_loc     0x000003fa      0x79c lib_generic/libgeneric.a(string.o)
 .debug_loc     0x00000b96      0xd3b lib_generic/libgeneric.a(vsprintf.o)
 .debug_loc     0x000018d1       0xa3 lib_generic/libgeneric.a(div64.o)
 .debug_loc     0x00001974       0x3d lib_generic/libgeneric.a(time.o)
 .debug_loc     0x000019b1       0xf5 cpu/arm1176/s3c64xx/libs3c64xx.a(speed.o)
 .debug_loc     0x00001aa6      0x152 cpu/arm1176/s3c64xx/libs3c64xx.a(timer.o)
 .debug_loc     0x00001bf8      0x214 lib_arm/libarm.a(interrupts.o)
 .debug_loc     0x00001e0c       0x6b lib_arm/libarm.a(reset.o)
 .debug_loc     0x00001e77      0x543 net/libnet.a(eth.o)
 .debug_loc     0x000023ba      0xaf0 net/libnet.a(net.o)
 .debug_loc     0x00002eaa      0x885 net/libnet.a(nfs.o)
 .debug_loc     0x0000372f       0xf8 net/libnet.a(rarp.o)
 .debug_loc     0x00003827      0x221 net/libnet.a(tftp.o)
 .debug_loc     0x00003a48      0x3bb net/libnet.a(bootp.o)
 .debug_loc     0x00003e03      0xe88 drivers/mtd/libmtd.a(cfi_flash.o)
 .debug_loc     0x00004c8b      0x1cb drivers/mtd/libmtd.a(jedec_flash.o)
 .debug_loc     0x00004e56       0x1f drivers/mtd/nand/libnand.a(nand.o)
 .debug_loc     0x00004e75     0x2cc8 drivers/mtd/nand/libnand.a(nand_base.o)
 .debug_loc     0x00007b3d     0x1715 drivers/mtd/nand/libnand.a(nand_bbt.o)
 .debug_loc     0x00009252      0x1ab drivers/mtd/nand/libnand.a(nand_ecc.o)
 .debug_loc     0x000093fd      0x292 drivers/mtd/nand/libnand.a(s3c64xx.o)
 .debug_loc     0x0000968f      0x3b5 drivers/net/libnet.a(dm9000x.o)
 .debug_loc     0x00009a44      0x142 drivers/serial/libserial.a(s3c64xx.o)
 .debug_loc     0x00009b86       0xbb common/libcommon.a(cmd_bdinfo.o)
 .debug_loc     0x00009c41      0x13e common/libcommon.a(cmd_boot.o)
 .debug_loc     0x00009d7f      0xa35 common/libcommon.a(cmd_bootm.o)
 .debug_loc     0x0000a7b4       0x81 common/libcommon.a(cmd_bootzImage.o)
 .debug_loc     0x0000a835      0x1c3 common/libcommon.a(cmd_cache.o)
 .debug_loc     0x0000a9f8       0x6b common/libcommon.a(cmd_console.o)
 .debug_loc     0x0000aa63       0xe1 common/libcommon.a(cmd_echo.o)
 .debug_loc     0x0000ab44      0x2f0 common/libcommon.a(cmd_elf.o)
 .debug_loc     0x0000ae34       0xb5 common/libcommon.a(cmd_exit.o)
 .debug_loc     0x0000aee9      0x3b8 common/libcommon.a(cmd_ext2.o)
 .debug_loc     0x0000b2a1      0x332 common/libcommon.a(cmd_fat.o)
 .debug_loc     0x0000b5d3      0xa45 common/libcommon.a(cmd_flash.o)
 .debug_loc     0x0000c018       0xa2 common/libcommon.a(cmd_help.o)
 .debug_loc     0x0000c0ba      0x318 common/libcommon.a(cmd_itest.o)
 .debug_loc     0x0000c3d2      0x811 common/libcommon.a(cmd_load.o)
 .debug_loc     0x0000cbe3      0xc38 common/libcommon.a(cmd_mem.o)
 .debug_loc     0x0000d81b       0x8c common/libcommon.a(cmd_misc.o)
 .debug_loc     0x0000d8a7      0x80e common/libcommon.a(cmd_nand.o)
 .debug_loc     0x0000e0b5      0x383 common/libcommon.a(cmd_net.o)
 .debug_loc     0x0000e438      0x857 common/libcommon.a(cmd_nvedit.o)
 .debug_loc     0x0000ec8f       0x13 common/libcommon.a(cmd_reginfo.o)
 .debug_loc     0x0000eca2      0x1a1 common/libcommon.a(cmd_source.o)
 .debug_loc     0x0000ee43      0x167 common/libcommon.a(cmd_test.o)
 .debug_loc     0x0000efaa      0x9bb common/libcommon.a(cmd_usb.o)
 .debug_loc     0x0000f965      0x858 common/libcommon.a(cmd_usbd.o)
 .debug_loc     0x000101bd       0x6b common/libcommon.a(cmd_version.o)
 .debug_loc     0x00010228      0x1f0 common/libcommon.a(cmd_ximg.o)
 .debug_loc     0x00010418      0x44d common/libcommon.a(command.o)
 .debug_loc     0x00010865      0x569 common/libcommon.a(console.o)
 .debug_loc     0x00010dce     0x11bc common/libcommon.a(dlmalloc.o)
 .debug_loc     0x00011f8a       0xc2 common/libcommon.a(env_common.o)
 .debug_loc     0x0001204c      0x241 common/libcommon.a(env_nand.o)
 .debug_loc     0x0001228d       0x2c common/libcommon.a(exports.o)
 .debug_loc     0x000122b9      0x374 common/libcommon.a(flash.o)
 .debug_loc     0x0001262d     0x1104 common/libcommon.a(hush.o)
 .debug_loc     0x00013731      0x7a4 common/libcommon.a(image.o)
 .debug_loc     0x00013ed5     0x1066 common/libcommon.a(main.o)
 .debug_loc     0x00014f3b      0x213 common/libcommon.a(s_record.o)
 .debug_loc     0x0001514e       0xd8 common/libcommon.a(stdio.o)
 .debug_loc     0x00015226     0x1361 common/libcommon.a(usb.o)
 .debug_loc     0x00016587      0xa6c common/libcommon.a(usb_storage.o)
 .debug_loc     0x00016ff3      0x524 common/libcommon.a(xyzModem.o)
 .debug_loc     0x00017517       0x58 board/samsung/smdk6410/libsmdk6410.a(smdk6410.o)
 .debug_loc     0x0001756f       0x3d lib_generic/libgeneric.a(crc16.o)
 .debug_loc     0x000175ac      0x1a6 lib_generic/libgeneric.a(crc32.o)
 .debug_loc     0x00017752      0x28e lib_generic/libgeneric.a(gunzip.o)
 .debug_loc     0x000179e0     0x1a52 lib_generic/libgeneric.a(zlib.o)
 .debug_loc     0x00019432       0x81 lib_arm/libarm.a(bootm.o)
 .debug_loc     0x000194b3      0x102 lib_arm/libarm.a(cache-cp15.o)
 .debug_loc     0x000195b5      0xe1a fs/fat/libfat.a(fat.o)
 .debug_loc     0x0001a3cf      0x942 fs/ext2/libext2fs.a(ext2fs.o)
 .debug_loc     0x0001ad11      0x1a4 fs/ext2/libext2fs.a(dev.o)
 .debug_loc     0x0001aeb5      0x1c8 disk/libdisk.a(part.o)
 .debug_loc     0x0001b07d      0x349 disk/libdisk.a(part_dos.o)
 .debug_loc     0x0001b3c6      0x6df drivers/mtd/nand/libnand.a(nand_util.o)
 .debug_loc     0x0001baa5     0x1207 drivers/usb/host/libusb_host.a(ohci-hcd.o)
 .debug_loc     0x0001ccac       0x1f cpu/arm1176/libarm1176.a(cpu.o)
 .debug_loc     0x0001cccb       0x3d /home/linx/Git/uboot2010/lib_arm/eabi_compat.o

.debug_pubnames
                0x00000000     0x3a54
 .debug_pubnames
                0x00000000       0x28 cpu/arm1176/nand_cp.o
 .debug_pubnames
                0x00000028      0x11f lib_arm/board.o
 .debug_pubnames
                0x00000147       0x46 lib_generic/libgeneric.a(display_options.o)
 .debug_pubnames
                0x0000018d       0x23 lib_generic/libgeneric.a(net_utils.o)
 .debug_pubnames
                0x000001b0      0x130 lib_generic/libgeneric.a(string.o)
 .debug_pubnames
                0x000002e0       0x87 lib_generic/libgeneric.a(vsprintf.o)
 .debug_pubnames
                0x00000367       0x1d lib_generic/libgeneric.a(ctype.o)
 .debug_pubnames
                0x00000384       0x21 lib_generic/libgeneric.a(div64.o)
 .debug_pubnames
                0x000003a5       0x1d lib_generic/libgeneric.a(time.o)
 .debug_pubnames
                0x000003c2       0x67 cpu/arm1176/s3c64xx/libs3c64xx.a(speed.o)
 .debug_pubnames
                0x00000429       0xa2 cpu/arm1176/s3c64xx/libs3c64xx.a(timer.o)
 .debug_pubnames
                0x000004cb       0xdf lib_arm/libarm.a(interrupts.o)
 .debug_pubnames
                0x000005aa       0x1f lib_arm/libarm.a(reset.o)
 .debug_pubnames
                0x000005c9      0x160 net/libnet.a(eth.o)
 .debug_pubnames
                0x00000729      0x3ee net/libnet.a(net.o)
 .debug_pubnames
                0x00000b17       0x1f net/libnet.a(nfs.o)
 .debug_pubnames
                0x00000b36       0x2e net/libnet.a(rarp.o)
 .debug_pubnames
                0x00000b64       0x53 net/libnet.a(tftp.o)
 .debug_pubnames
                0x00000bb7       0x3c net/libnet.a(bootp.o)
 .debug_pubnames
                0x00000bf3       0xcd drivers/mtd/libmtd.a(cfi_flash.o)
 .debug_pubnames
                0x00000cc0       0x28 drivers/mtd/libmtd.a(jedec_flash.o)
 .debug_pubnames
                0x00000ce8       0x4a drivers/mtd/nand/libnand.a(nand.o)
 .debug_pubnames
                0x00000d32       0x80 drivers/mtd/nand/libnand.a(nand_base.o)
 .debug_pubnames
                0x00000db2       0x60 drivers/mtd/nand/libnand.a(nand_bbt.o)
 .debug_pubnames
                0x00000e12       0x3f drivers/mtd/nand/libnand.a(nand_ecc.o)
 .debug_pubnames
                0x00000e51       0x38 drivers/mtd/nand/libnand.a(nand_ids.o)
 .debug_pubnames
                0x00000e89       0x26 drivers/mtd/nand/libnand.a(s3c64xx.o)
 .debug_pubnames
                0x00000eaf       0x5d drivers/net/libnet.a(dm9000x.o)
 .debug_pubnames
                0x00000f0c       0x74 drivers/serial/libserial.a(s3c64xx.o)
 .debug_pubnames
                0x00000f80       0x3f common/libcommon.a(cmd_bdinfo.o)
 .debug_pubnames
                0x00000fbf       0x56 common/libcommon.a(cmd_boot.o)
 .debug_pubnames
                0x00001015      0x101 common/libcommon.a(cmd_bootm.o)
 .debug_pubnames
                0x00001116       0x40 common/libcommon.a(cmd_bootzImage.o)
 .debug_pubnames
                0x00001156       0x5e common/libcommon.a(cmd_cache.o)
 .debug_pubnames
                0x000011b4       0x3a common/libcommon.a(cmd_console.o)
 .debug_pubnames
                0x000011ee       0x34 common/libcommon.a(cmd_echo.o)
 .debug_pubnames
                0x00001222       0x9b common/libcommon.a(cmd_elf.o)
 .debug_pubnames
                0x000012bd       0x34 common/libcommon.a(cmd_exit.o)
 .debug_pubnames
                0x000012f1       0x62 common/libcommon.a(cmd_ext2.o)
 .debug_pubnames
                0x00001353       0x8d common/libcommon.a(cmd_fat.o)
 .debug_pubnames
                0x000013e0       0xc8 common/libcommon.a(cmd_flash.o)
 .debug_pubnames
                0x000014a8       0x53 common/libcommon.a(cmd_help.o)
 .debug_pubnames
                0x000014fb       0x53 common/libcommon.a(cmd_itest.o)
 .debug_pubnames
                0x0000154e      0x1ab common/libcommon.a(cmd_load.o)
 .debug_pubnames
                0x000016f9      0x1d1 common/libcommon.a(cmd_mem.o)
 .debug_pubnames
                0x000018ca       0x36 common/libcommon.a(cmd_misc.o)
 .debug_pubnames
                0x00001900       0x5b common/libcommon.a(cmd_nand.o)
 .debug_pubnames
                0x0000195b       0xc6 common/libcommon.a(cmd_net.o)
 .debug_pubnames
                0x00001a21      0x11c common/libcommon.a(cmd_nvedit.o)
 .debug_pubnames
                0x00001b3d       0x3a common/libcommon.a(cmd_reginfo.o)
 .debug_pubnames
                0x00001b77       0x43 common/libcommon.a(cmd_source.o)
 .debug_pubnames
                0x00001bba       0x7a common/libcommon.a(cmd_test.o)
 .debug_pubnames
                0x00001c34      0x142 common/libcommon.a(cmd_usb.o)
 .debug_pubnames
                0x00001d76      0x635 common/libcommon.a(cmd_usbd.o)
 .debug_pubnames
                0x000023ab       0x3a common/libcommon.a(cmd_version.o)
 .debug_pubnames
                0x000023e5       0x3e common/libcommon.a(cmd_ximg.o)
 .debug_pubnames
                0x00002423       0x61 common/libcommon.a(command.o)
 .debug_pubnames
                0x00002484      0x147 common/libcommon.a(console.o)
 .debug_pubnames
                0x000025cb       0xfd common/libcommon.a(dlmalloc.o)
 .debug_pubnames
                0x000026c8       0xa3 common/libcommon.a(env_common.o)
 .debug_pubnames
                0x0000276b       0x95 common/libcommon.a(env_nand.o)
 .debug_pubnames
                0x00002800       0x3c common/libcommon.a(exports.o)
 .debug_pubnames
                0x0000283c       0x53 common/libcommon.a(flash.o)
 .debug_pubnames
                0x0000288f      0x11d common/libcommon.a(hush.o)
 .debug_pubnames
                0x000029ac      0x22c common/libcommon.a(image.o)
 .debug_pubnames
                0x00002bd8       0xcd common/libcommon.a(main.o)
 .debug_pubnames
                0x00002ca5       0x22 common/libcommon.a(s_record.o)
 .debug_pubnames
                0x00002cc7       0x96 common/libcommon.a(stdio.o)
 .debug_pubnames
                0x00002d5d      0x339 common/libcommon.a(usb.o)
 .debug_pubnames
                0x00003096      0x166 common/libcommon.a(usb_storage.o)
 .debug_pubnames
                0x000031fc       0xd5 common/libcommon.a(xyzModem.o)
 .debug_pubnames
                0x000032d1       0x6c board/samsung/smdk6410/libsmdk6410.a(smdk6410.o)
 .debug_pubnames
                0x0000333d       0x20 lib_generic/libgeneric.a(crc16.o)
 .debug_pubnames
                0x0000335d       0x3b lib_generic/libgeneric.a(crc32.o)
 .debug_pubnames
                0x00003398       0x3d lib_generic/libgeneric.a(gunzip.o)
 .debug_pubnames
                0x000033d5       0xb4 lib_generic/libgeneric.a(zlib.o)
 .debug_pubnames
                0x00003489       0x2c lib_arm/libarm.a(bootm.o)
 .debug_pubnames
                0x000034b5       0x22 lib_arm/libarm.a(cache.o)
 .debug_pubnames
                0x000034d7       0x80 lib_arm/libarm.a(cache-cp15.o)
 .debug_pubnames
                0x00003557       0xc7 fs/fat/libfat.a(fat.o)
 .debug_pubnames
                0x0000361e      0x14b fs/ext2/libext2fs.a(ext2fs.o)
 .debug_pubnames
                0x00003769       0x3c fs/ext2/libext2fs.a(dev.o)
 .debug_pubnames
                0x000037a5       0x67 disk/libdisk.a(part.o)
 .debug_pubnames
                0x0000380c       0x52 disk/libdisk.a(part_dos.o)
 .debug_pubnames
                0x0000385e       0x55 drivers/mtd/nand/libnand.a(nand_util.o)
 .debug_pubnames
                0x000038b3      0x110 drivers/usb/host/libusb_host.a(ohci-hcd.o)
 .debug_pubnames
                0x000039c3       0x4a drivers/usb/host/libusb_host.a(s3c64xx-hcd.o)
 .debug_pubnames
                0x00003a0d       0x2b cpu/arm1176/libarm1176.a(cpu.o)
 .debug_pubnames
                0x00003a38       0x1c /home/linx/Git/uboot2010/lib_arm/eabi_compat.o

.debug_str      0x00000000     0x9287
 .debug_str     0x00000000       0xf6 cpu/arm1176/nand_cp.o
                                0x13f (size before relaxing)
 .debug_str     0x000000f6      0x229 lib_arm/board.o
                                0x2e6 (size before relaxing)
 .debug_str     0x0000031f       0xa2 lib_generic/libgeneric.a(display_options.o)
                                0x177 (size before relaxing)
 .debug_str     0x000003c1       0x23 lib_generic/libgeneric.a(net_utils.o)
                                 0xf7 (size before relaxing)
 .debug_str     0x000003e4       0xd9 lib_generic/libgeneric.a(string.o)
                                0x1c9 (size before relaxing)
 .debug_str     0x000004bd      0x144 lib_generic/libgeneric.a(vsprintf.o)
                                0x295 (size before relaxing)
 .debug_str     0x00000601        0x8 lib_generic/libgeneric.a(ctype.o)
                                 0x4e (size before relaxing)
 .debug_str     0x00000609       0x22 lib_generic/libgeneric.a(div64.o)
                                 0xf5 (size before relaxing)
 .debug_str     0x0000062b        0xc lib_generic/libgeneric.a(time.o)
                                 0xd3 (size before relaxing)
 .debug_str     0x00000637       0xa5 cpu/arm1176/s3c64xx/libs3c64xx.a(speed.o)
                                0x145 (size before relaxing)
 .debug_str     0x000006dc       0xf2 cpu/arm1176/s3c64xx/libs3c64xx.a(timer.o)
                                0x1df (size before relaxing)
 .debug_str     0x000007ce       0xcc lib_arm/libarm.a(interrupts.o)
                                0x18d (size before relaxing)
 .debug_str     0x0000089a       0x3f lib_arm/libarm.a(reset.o)
                                0x113 (size before relaxing)
 .debug_str     0x000008d9      0x258 net/libnet.a(eth.o)
                                0x3cb (size before relaxing)
 .debug_str     0x00000b31      0x5c3 net/libnet.a(net.o)
                                0x81c (size before relaxing)
 .debug_str     0x000010f4      0x274 net/libnet.a(nfs.o)
                                0x452 (size before relaxing)
 .debug_str     0x00001368       0x4c net/libnet.a(rarp.o)
                                0x189 (size before relaxing)
 .debug_str     0x000013b4      0x1db net/libnet.a(tftp.o)
                                0x392 (size before relaxing)
 .debug_str     0x0000158f      0x16f net/libnet.a(bootp.o)
                                0x3c2 (size before relaxing)
 .debug_str     0x000016fe      0x63f drivers/mtd/libmtd.a(cfi_flash.o)
                                0x7de (size before relaxing)
 .debug_str     0x00001d3d      0x160 drivers/mtd/libmtd.a(jedec_flash.o)
                                0x397 (size before relaxing)
 .debug_str     0x00001e9d      0x4cf drivers/mtd/nand/libnand.a(nand.o)
                                0x86e (size before relaxing)
 .debug_str     0x0000236c      0x71a drivers/mtd/nand/libnand.a(nand_base.o)
                                0xef1 (size before relaxing)
 .debug_str     0x00002a86      0x282 drivers/mtd/nand/libnand.a(nand_bbt.o)
                                0xa16 (size before relaxing)
 .debug_str     0x00002d08       0x67 drivers/mtd/nand/libnand.a(nand_ecc.o)
                                0x4d7 (size before relaxing)
 .debug_str     0x00002d6f        0xb drivers/mtd/nand/libnand.a(nand_ids.o)
                                0x133 (size before relaxing)
 .debug_str     0x00002d7a      0x109 drivers/mtd/nand/libnand.a(s3c64xx.o)
                                0x878 (size before relaxing)
 .debug_str     0x00002e83      0x2b7 drivers/net/libnet.a(dm9000x.o)
                                0x43e (size before relaxing)
 .debug_str     0x0000313a      0x13c drivers/serial/libserial.a(s3c64xx.o)
                                0x298 (size before relaxing)
 .debug_str     0x00003276       0x5f common/libcommon.a(cmd_bdinfo.o)
                                0x1fe (size before relaxing)
 .debug_str     0x000032d5       0x3f common/libcommon.a(cmd_boot.o)
                                0x157 (size before relaxing)
 .debug_str     0x00003314      0x47a common/libcommon.a(cmd_bootm.o)
                                0x7f2 (size before relaxing)
 .debug_str     0x0000378e      0x154 common/libcommon.a(cmd_bootzImage.o)
                                0x2ac (size before relaxing)
 .debug_str     0x000038e2       0x4f common/libcommon.a(cmd_cache.o)
                                0x150 (size before relaxing)
 .debug_str     0x00003931       0x6c common/libcommon.a(cmd_console.o)
                                0x1a0 (size before relaxing)
 .debug_str     0x0000399d       0x2b common/libcommon.a(cmd_echo.o)
                                0x12c (size before relaxing)
 .debug_str     0x000039c8      0x1a7 common/libcommon.a(cmd_elf.o)
                                0x351 (size before relaxing)
 .debug_str     0x00003b6f       0x25 common/libcommon.a(cmd_exit.o)
                                0x126 (size before relaxing)
 .debug_str     0x00003b94       0xe4 common/libcommon.a(cmd_ext2.o)
                                0x263 (size before relaxing)
 .debug_str     0x00003c78       0x6d common/libcommon.a(cmd_fat.o)
                                0x228 (size before relaxing)
 .debug_str     0x00003ce5      0x13f common/libcommon.a(cmd_flash.o)
                                0x3ae (size before relaxing)
 .debug_str     0x00003e24       0x5c common/libcommon.a(cmd_help.o)
                                0x165 (size before relaxing)
 .debug_str     0x00003e80       0x80 common/libcommon.a(cmd_itest.o)
                                0x1a1 (size before relaxing)
 .debug_str     0x00003f00      0x442 common/libcommon.a(cmd_load.o)
                                0x69f (size before relaxing)
 .debug_str     0x00004342      0x1f5 common/libcommon.a(cmd_mem.o)
                                0x369 (size before relaxing)
 .debug_str     0x00004537       0x27 common/libcommon.a(cmd_misc.o)
                                0x13a (size before relaxing)
 .debug_str     0x0000455e       0xf2 common/libcommon.a(cmd_nand.o)
                                0x999 (size before relaxing)
 .debug_str     0x00004650       0xb8 common/libcommon.a(cmd_net.o)
                                0x2a5 (size before relaxing)
 .debug_str     0x00004708       0xfc common/libcommon.a(cmd_nvedit.o)
                                0x33b (size before relaxing)
 .debug_str     0x00004804       0x2e common/libcommon.a(cmd_reginfo.o)
                                0x12f (size before relaxing)
 .debug_str     0x00004832       0x35 common/libcommon.a(cmd_source.o)
                                0x265 (size before relaxing)
 .debug_str     0x00004867       0x73 common/libcommon.a(cmd_test.o)
                                0x179 (size before relaxing)
 .debug_str     0x000048da      0x47b common/libcommon.a(cmd_usb.o)
                                0x7af (size before relaxing)
 .debug_str     0x00004d55      0xec1 common/libcommon.a(cmd_usbd.o)
                               0x11c2 (size before relaxing)
 .debug_str     0x00005c16       0x2e common/libcommon.a(cmd_version.o)
                                0x13e (size before relaxing)
 .debug_str     0x00005c44       0x2f common/libcommon.a(cmd_ximg.o)
                                0x26d (size before relaxing)
 .debug_str     0x00005c73       0x89 common/libcommon.a(command.o)
                                0x1c4 (size before relaxing)
 .debug_str     0x00005cfc      0x12d common/libcommon.a(console.o)
                                0x4dd (size before relaxing)
 .debug_str     0x00005e29      0x2cd common/libcommon.a(dlmalloc.o)
                                0x4db (size before relaxing)
 .debug_str     0x000060f6       0x9b common/libcommon.a(env_common.o)
                                0x228 (size before relaxing)
 .debug_str     0x00006191       0x92 common/libcommon.a(env_nand.o)
                                0x620 (size before relaxing)
 .debug_str     0x00006223       0x1f common/libcommon.a(exports.o)
                                0x2fc (size before relaxing)
 .debug_str     0x00006242       0x46 common/libcommon.a(flash.o)
                                0x257 (size before relaxing)
 .debug_str     0x00006288      0x4d6 common/libcommon.a(hush.o)
                                0x782 (size before relaxing)
 .debug_str     0x0000675e      0x2c2 common/libcommon.a(image.o)
                                0x715 (size before relaxing)
 .debug_str     0x00006a20      0x1e0 common/libcommon.a(main.o)
                                0x3f1 (size before relaxing)
 .debug_str     0x00006c00       0x3a common/libcommon.a(s_record.o)
                                0x10b (size before relaxing)
 .debug_str     0x00006c3a       0x87 common/libcommon.a(stdio.o)
                                0x273 (size before relaxing)
 .debug_str     0x00006cc1      0x506 common/libcommon.a(usb.o)
                                0xa06 (size before relaxing)
 .debug_str     0x000071c7      0x417 common/libcommon.a(usb_storage.o)
                                0x99b (size before relaxing)
 .debug_str     0x000075de      0x1a3 common/libcommon.a(xyzModem.o)
                                0x2cc (size before relaxing)
 .debug_str     0x00007781       0x91 board/samsung/smdk6410/libsmdk6410.a(smdk6410.o)
                                0x301 (size before relaxing)
 .debug_str     0x00007812       0x1c lib_generic/libgeneric.a(crc16.o)
                                 0xeb (size before relaxing)
 .debug_str     0x0000782e       0x4a lib_generic/libgeneric.a(crc32.o)
                                0x13d (size before relaxing)
 .debug_str     0x00007878       0xd6 lib_generic/libgeneric.a(gunzip.o)
                                0x1d7 (size before relaxing)
 .debug_str     0x0000794e      0x2d0 lib_generic/libgeneric.a(zlib.o)
                                0x57b (size before relaxing)
 .debug_str     0x00007c1e      0x1f4 lib_arm/libarm.a(bootm.o)
                                0x59d (size before relaxing)
 .debug_str     0x00007e12       0x1a lib_arm/libarm.a(cache.o)
                                 0xd8 (size before relaxing)
 .debug_str     0x00007e2c       0x84 lib_arm/libarm.a(cache-cp15.o)
                                0x164 (size before relaxing)
 .debug_str     0x00007eb0      0x458 fs/fat/libfat.a(fat.o)
                                0x677 (size before relaxing)
 .debug_str     0x00008308      0x555 fs/ext2/libext2fs.a(ext2fs.o)
                                0x716 (size before relaxing)
 .debug_str     0x0000885d       0x68 fs/ext2/libext2fs.a(dev.o)
                                0x1fd (size before relaxing)
 .debug_str     0x000088c5       0xae disk/libdisk.a(part.o)
                                0x2d1 (size before relaxing)
 .debug_str     0x00008973      0x148 disk/libdisk.a(part_dos.o)
                                0x2e8 (size before relaxing)
 .debug_str     0x00008abb      0x14a drivers/mtd/nand/libnand.a(nand_util.o)
                                0x979 (size before relaxing)
 .debug_str     0x00008c05      0x606 drivers/usb/host/libusb_host.a(ohci-hcd.o)
                                0xb41 (size before relaxing)
 .debug_str     0x0000920b       0x3a drivers/usb/host/libusb_host.a(s3c64xx-hcd.o)
                                 0xf9 (size before relaxing)
 .debug_str     0x00009245       0x27 cpu/arm1176/libarm1176.a(cpu.o)
                                 0xe1 (size before relaxing)
 .debug_str     0x0000926c       0x1b /home/linx/Git/uboot2010/lib_arm/eabi_compat.o
                                 0xd1 (size before relaxing)

.comment        0x00000000      0xe9a
 .comment       0x00000000       0x2a cpu/arm1176/nand_cp.o
 .comment       0x0000002a       0x2a lib_arm/board.o
 .comment       0x00000054       0x2a lib_generic/libgeneric.a(display_options.o)
 .comment       0x0000007e       0x2a lib_generic/libgeneric.a(net_utils.o)
 .comment       0x000000a8       0x2a lib_generic/libgeneric.a(string.o)
 .comment       0x000000d2       0x2a lib_generic/libgeneric.a(vsprintf.o)
 .comment       0x000000fc       0x2a lib_generic/libgeneric.a(ctype.o)
 .comment       0x00000126       0x2a lib_generic/libgeneric.a(div64.o)
 .comment       0x00000150       0x2a lib_generic/libgeneric.a(time.o)
 .comment       0x0000017a       0x2a cpu/arm1176/s3c64xx/libs3c64xx.a(speed.o)
 .comment       0x000001a4       0x2a cpu/arm1176/s3c64xx/libs3c64xx.a(timer.o)
 .comment       0x000001ce       0x2a lib_arm/libarm.a(interrupts.o)
 .comment       0x000001f8       0x2a lib_arm/libarm.a(reset.o)
 .comment       0x00000222       0x2a net/libnet.a(eth.o)
 .comment       0x0000024c       0x2a net/libnet.a(net.o)
 .comment       0x00000276       0x2a net/libnet.a(nfs.o)
 .comment       0x000002a0       0x2a net/libnet.a(rarp.o)
 .comment       0x000002ca       0x2a net/libnet.a(tftp.o)
 .comment       0x000002f4       0x2a net/libnet.a(bootp.o)
 .comment       0x0000031e       0x2a drivers/mtd/libmtd.a(cfi_flash.o)
 .comment       0x00000348       0x2a drivers/mtd/libmtd.a(jedec_flash.o)
 .comment       0x00000372       0x2a drivers/mtd/nand/libnand.a(nand.o)
 .comment       0x0000039c       0x2a drivers/mtd/nand/libnand.a(nand_base.o)
 .comment       0x000003c6       0x2a drivers/mtd/nand/libnand.a(nand_bbt.o)
 .comment       0x000003f0       0x2a drivers/mtd/nand/libnand.a(nand_ecc.o)
 .comment       0x0000041a       0x2a drivers/mtd/nand/libnand.a(nand_ids.o)
 .comment       0x00000444       0x2a drivers/mtd/nand/libnand.a(s3c64xx.o)
 .comment       0x0000046e       0x2a drivers/net/libnet.a(dm9000x.o)
 .comment       0x00000498       0x2a drivers/serial/libserial.a(s3c64xx.o)
 .comment       0x000004c2       0x2a common/libcommon.a(cmd_bdinfo.o)
 .comment       0x000004ec       0x2a common/libcommon.a(cmd_boot.o)
 .comment       0x00000516       0x2a common/libcommon.a(cmd_bootm.o)
 .comment       0x00000540       0x2a common/libcommon.a(cmd_bootzImage.o)
 .comment       0x0000056a       0x2a common/libcommon.a(cmd_cache.o)
 .comment       0x00000594       0x2a common/libcommon.a(cmd_console.o)
 .comment       0x000005be       0x2a common/libcommon.a(cmd_echo.o)
 .comment       0x000005e8       0x2a common/libcommon.a(cmd_elf.o)
 .comment       0x00000612       0x2a common/libcommon.a(cmd_exit.o)
 .comment       0x0000063c       0x2a common/libcommon.a(cmd_ext2.o)
 .comment       0x00000666       0x2a common/libcommon.a(cmd_fat.o)
 .comment       0x00000690       0x2a common/libcommon.a(cmd_flash.o)
 .comment       0x000006ba       0x2a common/libcommon.a(cmd_help.o)
 .comment       0x000006e4       0x2a common/libcommon.a(cmd_itest.o)
 .comment       0x0000070e       0x2a common/libcommon.a(cmd_load.o)
 .comment       0x00000738       0x2a common/libcommon.a(cmd_mem.o)
 .comment       0x00000762       0x2a common/libcommon.a(cmd_misc.o)
 .comment       0x0000078c       0x2a common/libcommon.a(cmd_nand.o)
 .comment       0x000007b6       0x2a common/libcommon.a(cmd_net.o)
 .comment       0x000007e0       0x2a common/libcommon.a(cmd_nvedit.o)
 .comment       0x0000080a       0x2a common/libcommon.a(cmd_reginfo.o)
 .comment       0x00000834       0x2a common/libcommon.a(cmd_source.o)
 .comment       0x0000085e       0x2a common/libcommon.a(cmd_test.o)
 .comment       0x00000888       0x2a common/libcommon.a(cmd_usb.o)
 .comment       0x000008b2       0x2a common/libcommon.a(cmd_usbd.o)
 .comment       0x000008dc       0x2a common/libcommon.a(cmd_version.o)
 .comment       0x00000906       0x2a common/libcommon.a(cmd_ximg.o)
 .comment       0x00000930       0x2a common/libcommon.a(command.o)
 .comment       0x0000095a       0x2a common/libcommon.a(console.o)
 .comment       0x00000984       0x2a common/libcommon.a(dlmalloc.o)
 .comment       0x000009ae       0x2a common/libcommon.a(env_common.o)
 .comment       0x000009d8       0x2a common/libcommon.a(env_nand.o)
 .comment       0x00000a02       0x2a common/libcommon.a(exports.o)
 .comment       0x00000a2c       0x2a common/libcommon.a(flash.o)
 .comment       0x00000a56       0x2a common/libcommon.a(hush.o)
 .comment       0x00000a80       0x2a common/libcommon.a(image.o)
 .comment       0x00000aaa       0x2a common/libcommon.a(main.o)
 .comment       0x00000ad4       0x2a common/libcommon.a(s_record.o)
 .comment       0x00000afe       0x2a common/libcommon.a(stdio.o)
 .comment       0x00000b28       0x2a common/libcommon.a(usb.o)
 .comment       0x00000b52       0x2a common/libcommon.a(usb_storage.o)
 .comment       0x00000b7c       0x2a common/libcommon.a(xyzModem.o)
 .comment       0x00000ba6       0x2a board/samsung/smdk6410/libsmdk6410.a(smdk6410.o)
 .comment       0x00000bd0       0x2a lib_generic/libgeneric.a(crc16.o)
 .comment       0x00000bfa       0x2a lib_generic/libgeneric.a(crc32.o)
 .comment       0x00000c24       0x2a lib_generic/libgeneric.a(gunzip.o)
 .comment       0x00000c4e       0x2a lib_generic/libgeneric.a(zlib.o)
 .comment       0x00000c78       0x2a lib_arm/libarm.a(bootm.o)
 .comment       0x00000ca2       0x2a lib_arm/libarm.a(cache.o)
 .comment       0x00000ccc       0x2a lib_arm/libarm.a(cache-cp15.o)
 .comment       0x00000cf6       0x2a fs/fat/libfat.a(fat.o)
 .comment       0x00000d20       0x2a fs/ext2/libext2fs.a(ext2fs.o)
 .comment       0x00000d4a       0x2a fs/ext2/libext2fs.a(dev.o)
 .comment       0x00000d74       0x2a disk/libdisk.a(part.o)
 .comment       0x00000d9e       0x2a disk/libdisk.a(part_dos.o)
 .comment       0x00000dc8       0x2a drivers/mtd/nand/libnand.a(nand_util.o)
 .comment       0x00000df2       0x2a drivers/usb/host/libusb_host.a(ohci-hcd.o)
 .comment       0x00000e1c       0x2a drivers/usb/host/libusb_host.a(s3c64xx-hcd.o)
 .comment       0x00000e46       0x2a cpu/arm1176/libarm1176.a(cpu.o)
 .comment       0x00000e70       0x2a /home/linx/Git/uboot2010/lib_arm/eabi_compat.o

.note.GNU-stack
                0x00000000        0x0
 .note.GNU-stack
                0x00000000        0x0 cpu/arm1176/nand_cp.o
 .note.GNU-stack
                0x00000000        0x0 lib_arm/board.o
 .note.GNU-stack
                0x00000000        0x0 lib_generic/libgeneric.a(display_options.o)
 .note.GNU-stack
                0x00000000        0x0 lib_generic/libgeneric.a(net_utils.o)
 .note.GNU-stack
                0x00000000        0x0 lib_generic/libgeneric.a(string.o)
 .note.GNU-stack
                0x00000000        0x0 lib_generic/libgeneric.a(vsprintf.o)
 .note.GNU-stack
                0x00000000        0x0 lib_generic/libgeneric.a(ctype.o)
 .note.GNU-stack
                0x00000000        0x0 lib_generic/libgeneric.a(div64.o)
 .note.GNU-stack
                0x00000000        0x0 lib_generic/libgeneric.a(time.o)
 .note.GNU-stack
                0x00000000        0x0 cpu/arm1176/s3c64xx/libs3c64xx.a(speed.o)
 .note.GNU-stack
                0x00000000        0x0 cpu/arm1176/s3c64xx/libs3c64xx.a(timer.o)
 .note.GNU-stack
                0x00000000        0x0 lib_arm/libarm.a(interrupts.o)
 .note.GNU-stack
                0x00000000        0x0 lib_arm/libarm.a(reset.o)
 .note.GNU-stack
                0x00000000        0x0 net/libnet.a(eth.o)
 .note.GNU-stack
                0x00000000        0x0 net/libnet.a(net.o)
 .note.GNU-stack
                0x00000000        0x0 net/libnet.a(nfs.o)
 .note.GNU-stack
                0x00000000        0x0 net/libnet.a(rarp.o)
 .note.GNU-stack
                0x00000000        0x0 net/libnet.a(tftp.o)
 .note.GNU-stack
                0x00000000        0x0 net/libnet.a(bootp.o)
 .note.GNU-stack
                0x00000000        0x0 drivers/mtd/libmtd.a(cfi_flash.o)
 .note.GNU-stack
                0x00000000        0x0 drivers/mtd/libmtd.a(jedec_flash.o)
 .note.GNU-stack
                0x00000000        0x0 drivers/mtd/nand/libnand.a(nand.o)
 .note.GNU-stack
                0x00000000        0x0 drivers/mtd/nand/libnand.a(nand_base.o)
 .note.GNU-stack
                0x00000000        0x0 drivers/mtd/nand/libnand.a(nand_bbt.o)
 .note.GNU-stack
                0x00000000        0x0 drivers/mtd/nand/libnand.a(nand_ecc.o)
 .note.GNU-stack
                0x00000000        0x0 drivers/mtd/nand/libnand.a(nand_ids.o)
 .note.GNU-stack
                0x00000000        0x0 drivers/mtd/nand/libnand.a(s3c64xx.o)
 .note.GNU-stack
                0x00000000        0x0 drivers/net/libnet.a(dm9000x.o)
 .note.GNU-stack
                0x00000000        0x0 drivers/serial/libserial.a(s3c64xx.o)
 .note.GNU-stack
                0x00000000        0x0 common/libcommon.a(cmd_bdinfo.o)
 .note.GNU-stack
                0x00000000        0x0 common/libcommon.a(cmd_boot.o)
 .note.GNU-stack
                0x00000000        0x0 common/libcommon.a(cmd_bootm.o)
 .note.GNU-stack
                0x00000000        0x0 common/libcommon.a(cmd_bootzImage.o)
 .note.GNU-stack
                0x00000000        0x0 common/libcommon.a(cmd_cache.o)
 .note.GNU-stack
                0x00000000        0x0 common/libcommon.a(cmd_console.o)
 .note.GNU-stack
                0x00000000        0x0 common/libcommon.a(cmd_echo.o)
 .note.GNU-stack
                0x00000000        0x0 common/libcommon.a(cmd_elf.o)
 .note.GNU-stack
                0x00000000        0x0 common/libcommon.a(cmd_exit.o)
 .note.GNU-stack
                0x00000000        0x0 common/libcommon.a(cmd_ext2.o)
 .note.GNU-stack
                0x00000000        0x0 common/libcommon.a(cmd_fat.o)
 .note.GNU-stack
                0x00000000        0x0 common/libcommon.a(cmd_flash.o)
 .note.GNU-stack
                0x00000000        0x0 common/libcommon.a(cmd_help.o)
 .note.GNU-stack
                0x00000000        0x0 common/libcommon.a(cmd_itest.o)
 .note.GNU-stack
                0x00000000        0x0 common/libcommon.a(cmd_load.o)
 .note.GNU-stack
                0x00000000        0x0 common/libcommon.a(cmd_mem.o)
 .note.GNU-stack
                0x00000000        0x0 common/libcommon.a(cmd_misc.o)
 .note.GNU-stack
                0x00000000        0x0 common/libcommon.a(cmd_nand.o)
 .note.GNU-stack
                0x00000000        0x0 common/libcommon.a(cmd_net.o)
 .note.GNU-stack
                0x00000000        0x0 common/libcommon.a(cmd_nvedit.o)
 .note.GNU-stack
                0x00000000        0x0 common/libcommon.a(cmd_reginfo.o)
 .note.GNU-stack
                0x00000000        0x0 common/libcommon.a(cmd_source.o)
 .note.GNU-stack
                0x00000000        0x0 common/libcommon.a(cmd_test.o)
 .note.GNU-stack
                0x00000000        0x0 common/libcommon.a(cmd_usb.o)
 .note.GNU-stack
                0x00000000        0x0 common/libcommon.a(cmd_usbd.o)
 .note.GNU-stack
                0x00000000        0x0 common/libcommon.a(cmd_version.o)
 .note.GNU-stack
                0x00000000        0x0 common/libcommon.a(cmd_ximg.o)
 .note.GNU-stack
                0x00000000        0x0 common/libcommon.a(command.o)
 .note.GNU-stack
                0x00000000        0x0 common/libcommon.a(console.o)
 .note.GNU-stack
                0x00000000        0x0 common/libcommon.a(dlmalloc.o)
 .note.GNU-stack
                0x00000000        0x0 common/libcommon.a(env_common.o)
 .note.GNU-stack
                0x00000000        0x0 common/libcommon.a(env_nand.o)
 .note.GNU-stack
                0x00000000        0x0 common/libcommon.a(exports.o)
 .note.GNU-stack
                0x00000000        0x0 common/libcommon.a(flash.o)
 .note.GNU-stack
                0x00000000        0x0 common/libcommon.a(hush.o)
 .note.GNU-stack
                0x00000000        0x0 common/libcommon.a(image.o)
 .note.GNU-stack
                0x00000000        0x0 common/libcommon.a(main.o)
 .note.GNU-stack
                0x00000000        0x0 common/libcommon.a(s_record.o)
 .note.GNU-stack
                0x00000000        0x0 common/libcommon.a(stdio.o)
 .note.GNU-stack
                0x00000000        0x0 common/libcommon.a(usb.o)
 .note.GNU-stack
                0x00000000        0x0 common/libcommon.a(usb_storage.o)
 .note.GNU-stack
                0x00000000        0x0 common/libcommon.a(xyzModem.o)
 .note.GNU-stack
                0x00000000        0x0 board/samsung/smdk6410/libsmdk6410.a(smdk6410.o)
 .note.GNU-stack
                0x00000000        0x0 lib_generic/libgeneric.a(crc16.o)
 .note.GNU-stack
                0x00000000        0x0 lib_generic/libgeneric.a(crc32.o)
 .note.GNU-stack
                0x00000000        0x0 lib_generic/libgeneric.a(gunzip.o)
 .note.GNU-stack
                0x00000000        0x0 lib_generic/libgeneric.a(zlib.o)
 .note.GNU-stack
                0x00000000        0x0 lib_arm/libarm.a(bootm.o)
 .note.GNU-stack
                0x00000000        0x0 lib_arm/libarm.a(cache.o)
 .note.GNU-stack
                0x00000000        0x0 lib_arm/libarm.a(cache-cp15.o)
 .note.GNU-stack
                0x00000000        0x0 fs/fat/libfat.a(fat.o)
 .note.GNU-stack
                0x00000000        0x0 fs/ext2/libext2fs.a(ext2fs.o)
 .note.GNU-stack
                0x00000000        0x0 fs/ext2/libext2fs.a(dev.o)
 .note.GNU-stack
                0x00000000        0x0 disk/libdisk.a(part.o)
 .note.GNU-stack
                0x00000000        0x0 disk/libdisk.a(part_dos.o)
 .note.GNU-stack
                0x00000000        0x0 drivers/mtd/nand/libnand.a(nand_util.o)
 .note.GNU-stack
                0x00000000        0x0 drivers/usb/host/libusb_host.a(ohci-hcd.o)
 .note.GNU-stack
                0x00000000        0x0 drivers/usb/host/libusb_host.a(s3c64xx-hcd.o)
 .note.GNU-stack
                0x00000000        0x0 cpu/arm1176/libarm1176.a(cpu.o)
 .note.GNU-stack
                0x00000000        0x0 /home/linx/Git/uboot2010/lib_arm/eabi_compat.o
 .note.GNU-stack
                0x00000000        0x0 /usr/local/arm/4.3.2/bin/../lib/gcc/arm-none-linux-gnueabi/4.3.2/armv4t/libgcc.a(_udivsi3.o)
 .note.GNU-stack
                0x00000000        0x0 /usr/local/arm/4.3.2/bin/../lib/gcc/arm-none-linux-gnueabi/4.3.2/armv4t/libgcc.a(_divsi3.o)
 .note.GNU-stack
                0x00000000        0x0 /usr/local/arm/4.3.2/bin/../lib/gcc/arm-none-linux-gnueabi/4.3.2/armv4t/libgcc.a(_lshrdi3.o)
 .note.GNU-stack
                0x00000000        0x0 /usr/local/arm/4.3.2/bin/../lib/gcc/arm-none-linux-gnueabi/4.3.2/armv4t/libgcc.a(_ashrdi3.o)
 .note.GNU-stack
                0x00000000        0x0 /usr/local/arm/4.3.2/bin/../lib/gcc/arm-none-linux-gnueabi/4.3.2/armv4t/libgcc.a(_ashldi3.o)
 .note.GNU-stack
                0x00000000        0x0 /usr/local/arm/4.3.2/bin/../lib/gcc/arm-none-linux-gnueabi/4.3.2/armv4t/libgcc.a(_dvmd_lnx.o)

.debug_ranges   0x00000000     0x1c68
 .debug_ranges  0x00000000       0x18 lib_arm/board.o
 .debug_ranges  0x00000018       0x18 lib_generic/libgeneric.a(net_utils.o)
 .debug_ranges  0x00000030       0x60 lib_generic/libgeneric.a(vsprintf.o)
 .debug_ranges  0x00000090       0x30 cpu/arm1176/s3c64xx/libs3c64xx.a(timer.o)
 .debug_ranges  0x000000c0       0x50 net/libnet.a(eth.o)
 .debug_ranges  0x00000110       0xd8 net/libnet.a(net.o)
 .debug_ranges  0x000001e8       0x30 net/libnet.a(tftp.o)
 .debug_ranges  0x00000218       0xd0 net/libnet.a(bootp.o)
 .debug_ranges  0x000002e8      0x1f0 drivers/mtd/libmtd.a(cfi_flash.o)
 .debug_ranges  0x000004d8       0x28 drivers/mtd/nand/libnand.a(nand.o)
 .debug_ranges  0x00000500      0x238 drivers/mtd/nand/libnand.a(nand_base.o)
 .debug_ranges  0x00000738      0x190 drivers/mtd/nand/libnand.a(nand_bbt.o)
 .debug_ranges  0x000008c8       0x30 drivers/net/libnet.a(dm9000x.o)
 .debug_ranges  0x000008f8       0x38 common/libcommon.a(cmd_bdinfo.o)
 .debug_ranges  0x00000930       0xf8 common/libcommon.a(cmd_bootm.o)
 .debug_ranges  0x00000a28       0x18 common/libcommon.a(cmd_elf.o)
 .debug_ranges  0x00000a40      0x158 common/libcommon.a(cmd_load.o)
 .debug_ranges  0x00000b98       0x18 common/libcommon.a(cmd_mem.o)
 .debug_ranges  0x00000bb0       0xc0 common/libcommon.a(cmd_nand.o)
 .debug_ranges  0x00000c70       0x50 common/libcommon.a(cmd_nvedit.o)
 .debug_ranges  0x00000cc0       0x48 common/libcommon.a(cmd_usb.o)
 .debug_ranges  0x00000d08       0x38 common/libcommon.a(command.o)
 .debug_ranges  0x00000d40       0x60 common/libcommon.a(dlmalloc.o)
 .debug_ranges  0x00000da0       0x30 common/libcommon.a(env_common.o)
 .debug_ranges  0x00000dd0       0x50 common/libcommon.a(flash.o)
 .debug_ranges  0x00000e20      0x388 common/libcommon.a(hush.o)
 .debug_ranges  0x000011a8       0xa8 common/libcommon.a(image.o)
 .debug_ranges  0x00001250      0x178 common/libcommon.a(main.o)
 .debug_ranges  0x000013c8       0x68 common/libcommon.a(stdio.o)
 .debug_ranges  0x00001430       0x20 common/libcommon.a(usb.o)
 .debug_ranges  0x00001450       0xd0 common/libcommon.a(usb_storage.o)
 .debug_ranges  0x00001520       0x18 board/samsung/smdk6410/libsmdk6410.a(smdk6410.o)
 .debug_ranges  0x00001538       0x38 lib_generic/libgeneric.a(zlib.o)
 .debug_ranges  0x00001570       0xc0 lib_arm/libarm.a(bootm.o)
 .debug_ranges  0x00001630      0x180 fs/fat/libfat.a(fat.o)
 .debug_ranges  0x000017b0      0x130 fs/ext2/libext2fs.a(ext2fs.o)
 .debug_ranges  0x000018e0       0x48 drivers/mtd/nand/libnand.a(nand_util.o)
 .debug_ranges  0x00001928      0x340 drivers/usb/host/libusb_host.a(ohci-hcd.o)
